; Listing generated by Microsoft (R) Optimizing Compiler Version 19.00.23506.0 

	TITLE	d:\programming\starshatter\trunk\stars45\sim.cpp
	.686P
	.XMM
	include listing.inc
	.model	flat

INCLUDELIB OLDNAMES

PUBLIC	??_C@_0M@EIEAPHAO@SimObserver?$AA@		; `string'
PUBLIC	??_C@_0DD@OGGMGBIG@d?3?2programming?2starshatter?2trunk@ ; `string'
PUBLIC	??_C@_0BC@CAMCFAKE@Collateral?5Damage?$AA@	; `string'
PUBLIC	??_C@_0DP@BCONEFGH@Name?5?5?5?5?5?5?5?5?5?5?5?5?5?5Kill1?5?5Kill2?5?5@ ; `string'
PUBLIC	??_C@_0BE@MDJAGKKE@?6?6FINAL?5SCORE?5?8?$CFs?8?6?$AA@ ; `string'
PUBLIC	??_C@_0CF@KFDPBJH@?$CF?916s?5?5?$CF5d?5?5?$CF5d?5?5?$CF5d?5?5?$CF5d?5?5?$CF6d?5?5@ ; `string'
PUBLIC	??_C@_0DO@BFFMOOLB@?9?9?9?9?9?9?9?9?9?9?9?9?9?9?9?9?5?5?9?9?9?9?9?5?5?9?9?9?9?9?5?5@ ; `string'
PUBLIC	??_C@_0CH@GLANDEFM@TOTAL?5?5?5?5?5?5?5?5?5?5?5?5?5?$CF5d?5?5?$CF5d?5?5?$CF5d?5@ ; `string'
PUBLIC	??_C@_0CO@IHAFINE@?9?9?9?9?9?9?9?9?9?9?9?9?9?9?9?9?9?9?9?9?9?9?9?9?9?9?9?9?9?9?9?9@ ; `string'
PUBLIC	??_C@_0DE@LJMJJDEL@Sim?3?3ExecMission?$CI?$CFs?$CJ?5mission?5is?5@ ; `string'
PUBLIC	??_C@_0CN@BNNLBOCC@Sim?3?3ExecMission?$CI?$CJ?5?9?5No?5mission?5@ ; `string'
PUBLIC	??_C@_07MHJMBJCP@Sim?4cpp?$AA@			; `string'
PUBLIC	??_C@_0BF@INLOODOL@?6Exec?5Mission?3?5?8?$CFs?8?6?$AA@ ; `string'
PUBLIC	??_C@_0N@CNEAMPHK@Unidentified?$AA@		; `string'
PUBLIC	??_C@_0CJ@IICEGJCO@WARNING?3?5alert?5ship?5?8?$CFs?8?5region?5@ ; `string'
PUBLIC	??_C@_0CJ@POPAIFMC@Inserting?5Ship?$CI?$CFs?$CJ?5into?5Region?$CI?$CF@ ; `string'
PUBLIC	??_C@_0CJ@BABHFBHK@WARNING?3?5CreateShip?$CI?$CFs?$CJ?3?5invalid@ ; `string'
PUBLIC	??_C@_0BL@GPICPCGA@Ship?5?8?$CFs?8?5farcast?5to?5?8?$CFs?8?6?$AA@ ; `string'
PUBLIC	??_C@_0EB@OCIFAMJD@WARNING?3?5Sim?3?3ActivateRegion?$CI?$CJ?5N@ ; `string'
PUBLIC	??_C@_0BP@EADKDGGP@Ship?5?8?$CFs?8?5achieved?5orbit?5?8?$CFs?8?6?$AA@ ; `string'
PUBLIC	??_C@_0BP@KPJAHLOO@Ship?5?8?$CFs?8?5broke?5orbit?5to?5?8?$CFs?8?6?$AA@ ; `string'
PUBLIC	??_C@_0CN@DDGAJNGP@Warning?3?5Unusual?5jump?5request?5fo@ ; `string'
PUBLIC	??_C@_0BL@BLBMKKEF@Ship?5?8?$CFs?8?5quantum?5to?5?8?$CFs?8?6?$AA@ ; `string'
PUBLIC	??_C@_0M@PMIPMFJL@?1Mods?1Ships?$AA@		; `string'
PUBLIC	??_C@_0BH@IBFIGKOO@?5?5?5?5?$CFs?5Killed?5?$CFs?5?$CI?$CFs?$CJ?6?$AA@ ; `string'
PUBLIC	??_C@_0DN@GOGEGHME@SimRegion?5?$CFs?5could?5not?5set?5playe@ ; `string'
PUBLIC	??_C@_06OJHGLDPL@?$CInull?$CJ?$AA@		; `string'
PUBLIC	??_C@_0CL@IBPHLHIK@?5?5?5ship?5?$CFs?5died?5in?5collision?5wit@ ; `string'
PUBLIC	??_C@_05JPAGBMGJ@?$FLKIA?$FN?$AA@		; `string'
PUBLIC	??_C@_08OJEDLGMF@ASTEROID?$AA@			; `string'
PUBLIC	??_C@_06CAKIJOOM@DEBRIS?$AA@			; `string'
PUBLIC	??_C@_0DA@FMJBEPL@Warning?3?5No?5Element?5found?5for?5?8?$CF@ ; `string'
PUBLIC	??_C@_0CG@GLNEEKDA@?5?5?5?5ship?5destroyed?5by?5crash?3?5?$CFs?5@ ; `string'
PUBLIC	??_C@_0BE@MNIJIMLO@?$CF02d?3?$CF02d?3?$CF02d?4?$CF03d?$AA@ ; `string'
PUBLIC	??_C@_0BH@CIBPJMDL@?5?5?5?5?$CFs?5Docked?5with?5?$CFs?6?$AA@ ; `string'
PUBLIC	??_C@_0P@GCEINJHL@?$CF02d?3?$CF02d?4?$CF03d?$AA@ ; `string'
PUBLIC	??_R2SimRegion@@8				; SimRegion::`RTTI Base Class Array'
PUBLIC	??_R3SimRegion@@8				; SimRegion::`RTTI Class Hierarchy Descriptor'
PUBLIC	??_R0?AVSimRegion@@@8				; SimRegion `RTTI Type Descriptor'
PUBLIC	??_7Universe@@6B@				; Universe::`vftable'
PUBLIC	??_R2Sim@@8					; Sim::`RTTI Base Class Array'
PUBLIC	??_R4Resource@@6B@				; Resource::`RTTI Complete Object Locator'
PUBLIC	??_R3Universe@@8				; Universe::`RTTI Class Hierarchy Descriptor'
PUBLIC	??_R0?AVResource@@@8				; Resource `RTTI Type Descriptor'
PUBLIC	??_R1A@?0A@EA@Resource@@8			; Resource::`RTTI Base Class Descriptor at (0,-1,0,64)'
PUBLIC	??_7Bitmap@@6B@					; Bitmap::`vftable'
PUBLIC	??_R2Resource@@8				; Resource::`RTTI Base Class Array'
PUBLIC	??_R2Bitmap@@8					; Bitmap::`RTTI Base Class Array'
PUBLIC	??_7Resource@@6B@				; Resource::`vftable'
PUBLIC	??_R1A@?0A@EA@Bitmap@@8				; Bitmap::`RTTI Base Class Descriptor at (0,-1,0,64)'
PUBLIC	??_R0?AVSim@@@8					; Sim `RTTI Type Descriptor'
PUBLIC	??_7Sim@@6B@					; Sim::`vftable'
PUBLIC	??_7SimRegion@@6B@				; SimRegion::`vftable'
PUBLIC	??_R1A@?0A@EA@Universe@@8			; Universe::`RTTI Base Class Descriptor at (0,-1,0,64)'
PUBLIC	??_R1A@?0A@EA@Sim@@8				; Sim::`RTTI Base Class Descriptor at (0,-1,0,64)'
PUBLIC	??_R4Bitmap@@6B@				; Bitmap::`RTTI Complete Object Locator'
PUBLIC	??_R0?AVUniverse@@@8				; Universe `RTTI Type Descriptor'
PUBLIC	??_R0?AVBitmap@@@8				; Bitmap `RTTI Type Descriptor'
PUBLIC	??_R4SimRegion@@6B@				; SimRegion::`RTTI Complete Object Locator'
PUBLIC	??_R3Sim@@8					; Sim::`RTTI Class Hierarchy Descriptor'
PUBLIC	??_R3Bitmap@@8					; Bitmap::`RTTI Class Hierarchy Descriptor'
PUBLIC	??_R4Sim@@6B@					; Sim::`RTTI Complete Object Locator'
PUBLIC	??_R1A@?0A@EA@SimRegion@@8			; SimRegion::`RTTI Base Class Descriptor at (0,-1,0,64)'
PUBLIC	??_R2Universe@@8				; Universe::`RTTI Base Class Array'
PUBLIC	??_R3Resource@@8				; Resource::`RTTI Class Hierarchy Descriptor'
PUBLIC	??_R4Universe@@6B@				; Universe::`RTTI Complete Object Locator'
PUBLIC	?sim@Sim@@1PAV1@A				; Sim::sim
EXTRN	?SkipGameTime@Game@@SAXN@Z:PROC			; Game::SkipGameTime
EXTRN	?GetVideo@Game@@SAPAVVideo@@XZ:PROC		; Game::GetVideo
EXTRN	?SetListener@Sound@@SAXABVCamera@@ABUVec3@@@Z:PROC ; Sound::SetListener
EXTRN	?PixSize@Bitmap@@UBEHXZ:PROC			; Bitmap::PixSize
EXTRN	?GetSurface@Bitmap@@UAEPAEXZ:PROC		; Bitmap::GetSurface
EXTRN	?Pitch@Bitmap@@UBEHXZ:PROC			; Bitmap::Pitch
EXTRN	?SemiElasticCollision@Physical@@SAXAAV1@0@Z:PROC ; Physical::SemiElasticCollision
EXTRN	??1Resource@@UAE@XZ:PROC			; Resource::~Resource
EXTRN	?max_frame_length@Game@@1NA:QWORD		; Game::max_frame_length
?sim@Sim@@1PAV1@A DD 01H DUP (?)			; Sim::sim
_BSS	ENDS
;	COMDAT ??_R4Universe@@6B@
rdata$r	SEGMENT
??_R4Universe@@6B@ DD 00H				; Universe::`RTTI Complete Object Locator'
	DD	00H
	DD	00H
	DD	FLAT:??_R0?AVUniverse@@@8
	DD	FLAT:??_R3Universe@@8
rdata$r	ENDS
;	COMDAT ??_R3Resource@@8
rdata$r	SEGMENT
??_R3Resource@@8 DD 00H					; Resource::`RTTI Class Hierarchy Descriptor'
	DD	00H
	DD	01H
	DD	FLAT:??_R2Resource@@8
rdata$r	ENDS
;	COMDAT ??_R2Universe@@8
rdata$r	SEGMENT
??_R2Universe@@8 DD FLAT:??_R1A@?0A@EA@Universe@@8	; Universe::`RTTI Base Class Array'
rdata$r	ENDS
;	COMDAT ??_R1A@?0A@EA@SimRegion@@8
rdata$r	SEGMENT
??_R1A@?0A@EA@SimRegion@@8 DD FLAT:??_R0?AVSimRegion@@@8 ; SimRegion::`RTTI Base Class Descriptor at (0,-1,0,64)'
	DD	00H
	DD	00H
	DD	0ffffffffH
	DD	00H
	DD	040H
	DD	FLAT:??_R3SimRegion@@8
rdata$r	ENDS
;	COMDAT ??_R4Sim@@6B@
rdata$r	SEGMENT
??_R4Sim@@6B@ DD 00H					; Sim::`RTTI Complete Object Locator'
	DD	00H
	DD	00H
	DD	FLAT:??_R0?AVSim@@@8
	DD	FLAT:??_R3Sim@@8
rdata$r	ENDS
;	COMDAT ??_R3Bitmap@@8
rdata$r	SEGMENT
??_R3Bitmap@@8 DD 00H					; Bitmap::`RTTI Class Hierarchy Descriptor'
	DD	00H
	DD	02H
	DD	FLAT:??_R2Bitmap@@8
rdata$r	ENDS
;	COMDAT ??_R3Sim@@8
rdata$r	SEGMENT
??_R3Sim@@8 DD	00H					; Sim::`RTTI Class Hierarchy Descriptor'
	DD	00H
	DD	02H
	DD	FLAT:??_R2Sim@@8
rdata$r	ENDS
;	COMDAT ??_R4SimRegion@@6B@
rdata$r	SEGMENT
??_R4SimRegion@@6B@ DD 00H				; SimRegion::`RTTI Complete Object Locator'
	DD	00H
	DD	00H
	DD	FLAT:??_R0?AVSimRegion@@@8
	DD	FLAT:??_R3SimRegion@@8
rdata$r	ENDS
;	COMDAT ??_R0?AVBitmap@@@8
data$r	SEGMENT
??_R0?AVBitmap@@@8 DD FLAT:??_7type_info@@6B@		; Bitmap `RTTI Type Descriptor'
	DD	00H
	DB	'.?AVBitmap@@', 00H
data$r	ENDS
;	COMDAT ??_R0?AVUniverse@@@8
data$r	SEGMENT
??_R0?AVUniverse@@@8 DD FLAT:??_7type_info@@6B@		; Universe `RTTI Type Descriptor'
	DD	00H
	DB	'.?AVUniverse@@', 00H
data$r	ENDS
;	COMDAT ??_R4Bitmap@@6B@
rdata$r	SEGMENT
??_R4Bitmap@@6B@ DD 00H					; Bitmap::`RTTI Complete Object Locator'
	DD	00H
	DD	00H
	DD	FLAT:??_R0?AVBitmap@@@8
	DD	FLAT:??_R3Bitmap@@8
rdata$r	ENDS
;	COMDAT ??_R1A@?0A@EA@Sim@@8
rdata$r	SEGMENT
??_R1A@?0A@EA@Sim@@8 DD FLAT:??_R0?AVSim@@@8		; Sim::`RTTI Base Class Descriptor at (0,-1,0,64)'
	DD	01H
	DD	00H
	DD	0ffffffffH
	DD	00H
	DD	040H
	DD	FLAT:??_R3Sim@@8
rdata$r	ENDS
;	COMDAT ??_R1A@?0A@EA@Universe@@8
rdata$r	SEGMENT
??_R1A@?0A@EA@Universe@@8 DD FLAT:??_R0?AVUniverse@@@8	; Universe::`RTTI Base Class Descriptor at (0,-1,0,64)'
	DD	00H
	DD	00H
	DD	0ffffffffH
	DD	00H
	DD	040H
	DD	FLAT:??_R3Universe@@8
rdata$r	ENDS
;	COMDAT ??_7SimRegion@@6B@
CONST	SEGMENT
??_7SimRegion@@6B@ DD FLAT:??_R4SimRegion@@6B@		; SimRegion::`vftable'
	DD	FLAT:??_ESimRegion@@UAEPAXI@Z
	DD	FLAT:?Activate@SimRegion@@UAEXXZ
	DD	FLAT:?Deactivate@SimRegion@@UAEXXZ
	DD	FLAT:?ExecFrame@SimRegion@@UAEXN@Z
	DD	FLAT:?FindShipByObjID@SimRegion@@UAEPAVShip@@K@Z
	DD	FLAT:?FindShotByObjID@SimRegion@@UAEPAVShot@@K@Z
	DD	FLAT:?InsertObject@SimRegion@@UAEXPAVAsteroid@@@Z
	DD	FLAT:?InsertObject@SimRegion@@UAEXPAVDebris@@@Z
	DD	FLAT:?InsertObject@SimRegion@@UAEXPAVExplosion@@@Z
	DD	FLAT:?InsertObject@SimRegion@@UAEXPAVShot@@@Z
	DD	FLAT:?InsertObject@SimRegion@@UAEXPAVShip@@@Z
CONST	ENDS
;	COMDAT ??_7Sim@@6B@
CONST	SEGMENT
??_7Sim@@6B@ DD	FLAT:??_R4Sim@@6B@			; Sim::`vftable'
	DD	FLAT:??_ESim@@UAEPAXI@Z
	DD	FLAT:?ExecFrame@Sim@@UAEXN@Z
	DD	FLAT:?FindShipByObjID@Sim@@UAEPAVShip@@K@Z
	DD	FLAT:?FindShotByObjID@Sim@@UAEPAVShot@@K@Z
CONST	ENDS
;	COMDAT ??_R0?AVSim@@@8
data$r	SEGMENT
??_R0?AVSim@@@8 DD FLAT:??_7type_info@@6B@		; Sim `RTTI Type Descriptor'
	DD	00H
	DB	'.?AVSim@@', 00H
data$r	ENDS
;	COMDAT ??_R1A@?0A@EA@Bitmap@@8
rdata$r	SEGMENT
??_R1A@?0A@EA@Bitmap@@8 DD FLAT:??_R0?AVBitmap@@@8	; Bitmap::`RTTI Base Class Descriptor at (0,-1,0,64)'
	DD	01H
	DD	00H
	DD	0ffffffffH
	DD	00H
	DD	040H
	DD	FLAT:??_R3Bitmap@@8
rdata$r	ENDS
;	COMDAT ??_7Resource@@6B@
CONST	SEGMENT
??_7Resource@@6B@ DD FLAT:??_R4Resource@@6B@		; Resource::`vftable'
	DD	FLAT:??_EResource@@UAEPAXI@Z
CONST	ENDS
;	COMDAT ??_R2Bitmap@@8
rdata$r	SEGMENT
??_R2Bitmap@@8 DD FLAT:??_R1A@?0A@EA@Bitmap@@8		; Bitmap::`RTTI Base Class Array'
	DD	FLAT:??_R1A@?0A@EA@Resource@@8
rdata$r	ENDS
;	COMDAT ??_R2Resource@@8
rdata$r	SEGMENT
??_R2Resource@@8 DD FLAT:??_R1A@?0A@EA@Resource@@8	; Resource::`RTTI Base Class Array'
rdata$r	ENDS
;	COMDAT ??_7Bitmap@@6B@
CONST	SEGMENT
??_7Bitmap@@6B@ DD FLAT:??_R4Bitmap@@6B@		; Bitmap::`vftable'
	DD	FLAT:??_EBitmap@@UAEPAXI@Z
	DD	FLAT:?GetSurface@Bitmap@@UAEPAEXZ
	DD	FLAT:?Pitch@Bitmap@@UBEHXZ
	DD	FLAT:?PixSize@Bitmap@@UBEHXZ
CONST	ENDS
;	COMDAT ??_R1A@?0A@EA@Resource@@8
rdata$r	SEGMENT
??_R1A@?0A@EA@Resource@@8 DD FLAT:??_R0?AVResource@@@8	; Resource::`RTTI Base Class Descriptor at (0,-1,0,64)'
	DD	00H
	DD	00H
	DD	0ffffffffH
	DD	00H
	DD	040H
	DD	FLAT:??_R3Resource@@8
rdata$r	ENDS
;	COMDAT ??_R0?AVResource@@@8
data$r	SEGMENT
??_R0?AVResource@@@8 DD FLAT:??_7type_info@@6B@		; Resource `RTTI Type Descriptor'
	DD	00H
	DB	'.?AVResource@@', 00H
data$r	ENDS
;	COMDAT ??_R3Universe@@8
rdata$r	SEGMENT
??_R3Universe@@8 DD 00H					; Universe::`RTTI Class Hierarchy Descriptor'
	DD	00H
	DD	01H
	DD	FLAT:??_R2Universe@@8
rdata$r	ENDS
;	COMDAT ??_R4Resource@@6B@
rdata$r	SEGMENT
??_R4Resource@@6B@ DD 00H				; Resource::`RTTI Complete Object Locator'
	DD	00H
	DD	00H
	DD	FLAT:??_R0?AVResource@@@8
	DD	FLAT:??_R3Resource@@8
rdata$r	ENDS
;	COMDAT ??_R2Sim@@8
rdata$r	SEGMENT
??_R2Sim@@8 DD	FLAT:??_R1A@?0A@EA@Sim@@8		; Sim::`RTTI Base Class Array'
	DD	FLAT:??_R1A@?0A@EA@Universe@@8
rdata$r	ENDS
;	COMDAT ??_7Universe@@6B@
CONST	SEGMENT
??_7Universe@@6B@ DD FLAT:??_R4Universe@@6B@		; Universe::`vftable'
	DD	FLAT:??_EUniverse@@UAEPAXI@Z
	DD	FLAT:?ExecFrame@Universe@@UAEXN@Z
CONST	ENDS
;	COMDAT ??_R0?AVSimRegion@@@8
data$r	SEGMENT
??_R0?AVSimRegion@@@8 DD FLAT:??_7type_info@@6B@	; SimRegion `RTTI Type Descriptor'
	DD	00H
	DB	'.?AVSimRegion@@', 00H
data$r	ENDS
;	COMDAT ??_R3SimRegion@@8
rdata$r	SEGMENT
??_R3SimRegion@@8 DD 00H				; SimRegion::`RTTI Class Hierarchy Descriptor'
	DD	00H
	DD	01H
	DD	FLAT:??_R2SimRegion@@8
rdata$r	ENDS
;	COMDAT ??_R2SimRegion@@8
rdata$r	SEGMENT
??_R2SimRegion@@8 DD FLAT:??_R1A@?0A@EA@SimRegion@@8	; SimRegion::`RTTI Base Class Array'
rdata$r	ENDS
;	COMDAT ??_C@_0P@GCEINJHL@?$CF02d?3?$CF02d?4?$CF03d?$AA@
CONST	SEGMENT
??_C@_0P@GCEINJHL@?$CF02d?3?$CF02d?4?$CF03d?$AA@ DB '%02d:%02d.%03d', 00H ; `string'
CONST	ENDS
;	COMDAT ??_C@_0BH@CIBPJMDL@?5?5?5?5?$CFs?5Docked?5with?5?$CFs?6?$AA@
CONST	SEGMENT
??_C@_0BH@CIBPJMDL@?5?5?5?5?$CFs?5Docked?5with?5?$CFs?6?$AA@ DB '    %s D'
	DB	'ocked with %s', 0aH, 00H			; `string'
CONST	ENDS
;	COMDAT ??_C@_0BE@MNIJIMLO@?$CF02d?3?$CF02d?3?$CF02d?4?$CF03d?$AA@
CONST	SEGMENT
??_C@_0BE@MNIJIMLO@?$CF02d?3?$CF02d?3?$CF02d?4?$CF03d?$AA@ DB '%02d:%02d:'
	DB	'%02d.%03d', 00H				; `string'
CONST	ENDS
;	COMDAT ??_C@_0CG@GLNEEKDA@?5?5?5?5ship?5destroyed?5by?5crash?3?5?$CFs?5@
CONST	SEGMENT
??_C@_0CG@GLNEEKDA@?5?5?5?5ship?5destroyed?5by?5crash?3?5?$CFs?5@ DB '   '
	DB	' ship destroyed by crash: %s (%s)', 0aH, 00H ; `string'
CONST	ENDS
;	COMDAT ??_C@_0DA@FMJBEPL@Warning?3?5No?5Element?5found?5for?5?8?$CF@
CONST	SEGMENT
??_C@_0DA@FMJBEPL@Warning?3?5No?5Element?5found?5for?5?8?$CF@ DB 'Warning'
	DB	': No Element found for ''%s'' on respawn.', 0aH, 00H ; `string'
CONST	ENDS
;	COMDAT ??_C@_06CAKIJOOM@DEBRIS?$AA@
CONST	SEGMENT
??_C@_06CAKIJOOM@DEBRIS?$AA@ DB 'DEBRIS', 00H		; `string'
CONST	ENDS
;	COMDAT ??_C@_08OJEDLGMF@ASTEROID?$AA@
CONST	SEGMENT
??_C@_08OJEDLGMF@ASTEROID?$AA@ DB 'ASTEROID', 00H	; `string'
CONST	ENDS
;	COMDAT ??_C@_05JPAGBMGJ@?$FLKIA?$FN?$AA@
CONST	SEGMENT
??_C@_05JPAGBMGJ@?$FLKIA?$FN?$AA@ DB '[KIA]', 00H	; `string'
CONST	ENDS
;	COMDAT ??_C@_0CL@IBPHLHIK@?5?5?5ship?5?$CFs?5died?5in?5collision?5wit@
CONST	SEGMENT
??_C@_0CL@IBPHLHIK@?5?5?5ship?5?$CFs?5died?5in?5collision?5wit@ DB '   sh'
	DB	'ip %s died in collision with %s (%s)', 0aH, 00H ; `string'
CONST	ENDS
;	COMDAT ??_C@_06OJHGLDPL@?$CInull?$CJ?$AA@
CONST	SEGMENT
??_C@_06OJHGLDPL@?$CInull?$CJ?$AA@ DB '(null)', 00H	; `string'
CONST	ENDS
;	COMDAT ??_C@_0DN@GOGEGHME@SimRegion?5?$CFs?5could?5not?5set?5playe@
CONST	SEGMENT
??_C@_0DN@GOGEGHME@SimRegion?5?$CFs?5could?5not?5set?5playe@ DB 'SimRegio'
	DB	'n %s could not set player ship ''%s'' - not in region', 0aH, 00H ; `string'
CONST	ENDS
;	COMDAT ??_C@_0BH@IBFIGKOO@?5?5?5?5?$CFs?5Killed?5?$CFs?5?$CI?$CFs?$CJ?6?$AA@
CONST	SEGMENT
??_C@_0BH@IBFIGKOO@?5?5?5?5?$CFs?5Killed?5?$CFs?5?$CI?$CFs?$CJ?6?$AA@ DB ' '
	DB	'   %s Killed %s (%s)', 0aH, 00H		; `string'
CONST	ENDS
;	COMDAT ??_C@_0M@PMIPMFJL@?1Mods?1Ships?$AA@
CONST	SEGMENT
??_C@_0M@PMIPMFJL@?1Mods?1Ships?$AA@ DB '/Mods/Ships', 00H ; `string'
CONST	ENDS
;	COMDAT ??_C@_0BL@BLBMKKEF@Ship?5?8?$CFs?8?5quantum?5to?5?8?$CFs?8?6?$AA@
CONST	SEGMENT
??_C@_0BL@BLBMKKEF@Ship?5?8?$CFs?8?5quantum?5to?5?8?$CFs?8?6?$AA@ DB 'Shi'
	DB	'p ''%s'' quantum to ''%s''', 0aH, 00H	; `string'
CONST	ENDS
;	COMDAT ??_C@_0CN@DDGAJNGP@Warning?3?5Unusual?5jump?5request?5fo@
CONST	SEGMENT
??_C@_0CN@DDGAJNGP@Warning?3?5Unusual?5jump?5request?5fo@ DB 'Warning: Un'
	DB	'usual jump request for ship ''%s''', 0aH, 00H ; `string'
CONST	ENDS
;	COMDAT ??_C@_0BP@KPJAHLOO@Ship?5?8?$CFs?8?5broke?5orbit?5to?5?8?$CFs?8?6?$AA@
CONST	SEGMENT
??_C@_0BP@KPJAHLOO@Ship?5?8?$CFs?8?5broke?5orbit?5to?5?8?$CFs?8?6?$AA@ DB 'S'
	DB	'hip ''%s'' broke orbit to ''%s''', 0aH, 00H	; `string'
CONST	ENDS
;	COMDAT ??_C@_0BP@EADKDGGP@Ship?5?8?$CFs?8?5achieved?5orbit?5?8?$CFs?8?6?$AA@
CONST	SEGMENT
??_C@_0BP@EADKDGGP@Ship?5?8?$CFs?8?5achieved?5orbit?5?8?$CFs?8?6?$AA@ DB 'S'
	DB	'hip ''%s'' achieved orbit ''%s''', 0aH, 00H	; `string'
CONST	ENDS
;	COMDAT ??_C@_0EB@OCIFAMJD@WARNING?3?5Sim?3?3ActivateRegion?$CI?$CJ?5N@
CONST	SEGMENT
??_C@_0EB@OCIFAMJD@WARNING?3?5Sim?3?3ActivateRegion?$CI?$CJ?5N@ DB 'WARNI'
	DB	'NG: Sim::ActivateRegion() No star system found for rgn ''%s'''
	DB	00H						; `string'
CONST	ENDS
;	COMDAT ??_C@_0BL@GPICPCGA@Ship?5?8?$CFs?8?5farcast?5to?5?8?$CFs?8?6?$AA@
CONST	SEGMENT
??_C@_0BL@GPICPCGA@Ship?5?8?$CFs?8?5farcast?5to?5?8?$CFs?8?6?$AA@ DB 'Shi'
	DB	'p ''%s'' farcast to ''%s''', 0aH, 00H	; `string'
CONST	ENDS
;	COMDAT ??_C@_0CJ@BABHFBHK@WARNING?3?5CreateShip?$CI?$CFs?$CJ?3?5invalid@
CONST	SEGMENT
??_C@_0CJ@BABHFBHK@WARNING?3?5CreateShip?$CI?$CFs?$CJ?3?5invalid@ DB 'WAR'
	DB	'NING: CreateShip(%s): invalid design', 0aH, 00H ; `string'
CONST	ENDS
;	COMDAT ??_C@_0CJ@POPAIFMC@Inserting?5Ship?$CI?$CFs?$CJ?5into?5Region?$CI?$CF@
CONST	SEGMENT
??_C@_0CJ@POPAIFMC@Inserting?5Ship?$CI?$CFs?$CJ?5into?5Region?$CI?$CF@ DB 'I'
	DB	'nserting Ship(%s) into Region(%s) (%s)', 0aH, 00H ; `string'
CONST	ENDS
;	COMDAT ??_C@_0CJ@IICEGJCO@WARNING?3?5alert?5ship?5?8?$CFs?8?5region?5@
CONST	SEGMENT
??_C@_0CJ@IICEGJCO@WARNING?3?5alert?5ship?5?8?$CFs?8?5region?5@ DB 'WARNI'
	DB	'NG: alert ship ''%s'' region is null', 0aH, 00H ; `string'
CONST	ENDS
;	COMDAT ??_C@_0N@CNEAMPHK@Unidentified?$AA@
CONST	SEGMENT
??_C@_0N@CNEAMPHK@Unidentified?$AA@ DB 'Unidentified', 00H ; `string'
CONST	ENDS
;	COMDAT ??_C@_0BF@INLOODOL@?6Exec?5Mission?3?5?8?$CFs?8?6?$AA@
CONST	SEGMENT
??_C@_0BF@INLOODOL@?6Exec?5Mission?3?5?8?$CFs?8?6?$AA@ DB 0aH, 'Exec Miss'
	DB	'ion: ''%s''', 0aH, 00H			; `string'
CONST	ENDS
;	COMDAT ??_C@_07MHJMBJCP@Sim?4cpp?$AA@
CONST	SEGMENT
??_C@_07MHJMBJCP@Sim?4cpp?$AA@ DB 'Sim.cpp', 00H	; `string'
CONST	ENDS
;	COMDAT ??_C@_0CN@BNNLBOCC@Sim?3?3ExecMission?$CI?$CJ?5?9?5No?5mission?5@
CONST	SEGMENT
??_C@_0CN@BNNLBOCC@Sim?3?3ExecMission?$CI?$CJ?5?9?5No?5mission?5@ DB 'Sim'
	DB	'::ExecMission() - No mission to execute.', 0aH, 00H ; `string'
CONST	ENDS
;	COMDAT ??_C@_0DE@LJMJJDEL@Sim?3?3ExecMission?$CI?$CFs?$CJ?5mission?5is?5@
CONST	SEGMENT
??_C@_0DE@LJMJJDEL@Sim?3?3ExecMission?$CI?$CFs?$CJ?5mission?5is?5@ DB 'Si'
	DB	'm::ExecMission(%s) mission is already executing.', 0aH, 00H ; `string'
CONST	ENDS
;	COMDAT ??_C@_0CO@IHAFINE@?9?9?9?9?9?9?9?9?9?9?9?9?9?9?9?9?9?9?9?9?9?9?9?9?9?9?9?9?9?9?9?9@
CONST	SEGMENT
??_C@_0CO@IHAFINE@?9?9?9?9?9?9?9?9?9?9?9?9?9?9?9?9?9?9?9?9?9?9?9?9?9?9?9?9?9?9?9?9@ DB '-'
	DB	'-------------------------------------------', 0aH, 00H ; `string'
CONST	ENDS
;	COMDAT ??_C@_0CH@GLANDEFM@TOTAL?5?5?5?5?5?5?5?5?5?5?5?5?5?$CF5d?5?5?$CF5d?5?5?$CF5d?5@
CONST	SEGMENT
??_C@_0CH@GLANDEFM@TOTAL?5?5?5?5?5?5?5?5?5?5?5?5?5?$CF5d?5?5?$CF5d?5?5?$CF5d?5@ DB 'T'
	DB	'OTAL             %5d  %5d  %5d  %5d', 0aH, 0aH, 00H ; `string'
CONST	ENDS
;	COMDAT ??_C@_0DO@BFFMOOLB@?9?9?9?9?9?9?9?9?9?9?9?9?9?9?9?9?5?5?9?9?9?9?9?5?5?9?9?9?9?9?5?5@
CONST	SEGMENT
??_C@_0DO@BFFMOOLB@?9?9?9?9?9?9?9?9?9?9?9?9?9?9?9?9?5?5?9?9?9?9?9?5?5?9?9?9?9?9?5?5@ DB '-'
	DB	'---------------  -----  -----  -----  -----  ------  ------', 0aH
	DB	00H						; `string'
CONST	ENDS
;	COMDAT ??_C@_0CF@KFDPBJH@?$CF?916s?5?5?$CF5d?5?5?$CF5d?5?5?$CF5d?5?5?$CF5d?5?5?$CF6d?5?5@
CONST	SEGMENT
??_C@_0CF@KFDPBJH@?$CF?916s?5?5?$CF5d?5?5?$CF5d?5?5?$CF5d?5?5?$CF5d?5?5?$CF6d?5?5@ DB '%'
	DB	'-16s  %5d  %5d  %5d  %5d  %6d  %6d', 0aH, 00H ; `string'
CONST	ENDS
;	COMDAT ??_C@_0BE@MDJAGKKE@?6?6FINAL?5SCORE?5?8?$CFs?8?6?$AA@
CONST	SEGMENT
??_C@_0BE@MDJAGKKE@?6?6FINAL?5SCORE?5?8?$CFs?8?6?$AA@ DB 0aH, 0aH, 'FINAL'
	DB	' SCORE ''%s''', 0aH, 00H			; `string'
CONST	ENDS
;	COMDAT ??_C@_0DP@BCONEFGH@Name?5?5?5?5?5?5?5?5?5?5?5?5?5?5Kill1?5?5Kill2?5?5@
CONST	SEGMENT
??_C@_0DP@BCONEFGH@Name?5?5?5?5?5?5?5?5?5?5?5?5?5?5Kill1?5?5Kill2?5?5@ DB 'N'
	DB	'ame              Kill1  Kill2  Died   Colls  Points  Cmd Pts', 0aH
	DB	00H						; `string'
CONST	ENDS
;	COMDAT ??_C@_0BC@CAMCFAKE@Collateral?5Damage?$AA@
CONST	SEGMENT
??_C@_0BC@CAMCFAKE@Collateral?5Damage?$AA@ DB 'Collateral Damage', 00H ; `string'
CONST	ENDS
;	COMDAT ??_C@_0DD@OGGMGBIG@d?3?2programming?2starshatter?2trunk@
CONST	SEGMENT
??_C@_0DD@OGGMGBIG@d?3?2programming?2starshatter?2trunk@ DB 'd:\programmi'
	DB	'ng\starshatter\trunk\stars45\Mission.h', 00H ; `string'
CONST	ENDS
;	COMDAT ??_C@_0M@EIEAPHAO@SimObserver?$AA@
CONST	SEGMENT
??_C@_0M@EIEAPHAO@SimObserver?$AA@ DB 'SimObserver', 00H ; `string'
	ORG $+6784
?first_frame@@3_NA DB 01H				; first_frame
PUBLIC	?check@?$List@VExplosion@@@@ABE_NAAH@Z		; List<Explosion>::check
PUBLIC	?check@?$List@VAsteroid@@@@ABE_NAAH@Z		; List<Asteroid>::check
PUBLIC	?check@?$List@VDebris@@@@ABE_NAAH@Z		; List<Debris>::check
PUBLIC	?check@?$List@VDrone@@@@ABE_NAAH@Z		; List<Drone>::check
PUBLIC	?index@?$List@VModel@@@@QBEHPBVModel@@@Z	; List<Model>::index
PUBLIC	?resize@?$List@VExplosion@@@@AAEXH@Z		; List<Explosion>::resize
PUBLIC	?removeIndex@?$List@VExplosion@@@@QAEPAVExplosion@@H@Z ; List<Explosion>::removeIndex
PUBLIC	?resize@?$List@VAsteroid@@@@AAEXH@Z		; List<Asteroid>::resize
PUBLIC	?removeIndex@?$List@VAsteroid@@@@QAEPAVAsteroid@@H@Z ; List<Asteroid>::removeIndex
PUBLIC	?resize@?$List@VDebris@@@@AAEXH@Z		; List<Debris>::resize
PUBLIC	?removeIndex@?$List@VDebris@@@@QAEPAVDebris@@H@Z ; List<Debris>::removeIndex
PUBLIC	?resize@?$List@VDrone@@@@AAEXH@Z		; List<Drone>::resize
PUBLIC	?removeIndex@?$List@VDrone@@@@QAEPAVDrone@@H@Z	; List<Drone>::removeIndex
PUBLIC	?resize@?$List@VSimSplash@@@@AAEXH@Z		; List<SimSplash>::resize
PUBLIC	?resize@?$List@VSimHyper@@@@AAEXH@Z		; List<SimHyper>::resize
PUBLIC	?check@?$List@VElement@@@@ABE_NAAH@Z		; List<Element>::check
PUBLIC	?removeIndex@?$List@VElement@@@@QAEPAVElement@@H@Z ; List<Element>::removeIndex
PUBLIC	??1SimSplash@@QAE@XZ				; SimSplash::~SimSplash
PUBLIC	??_GSimSplash@@QAEPAXI@Z			; SimSplash::`scalar deleting destructor'
PUBLIC	?value@?$ListIter@VModel@@@@QAEPAVModel@@XZ	; ListIter<Model>::value
PUBLIC	?next@?$ListIter@VModel@@@@QAEPAVModel@@XZ	; ListIter<Model>::next
PUBLIC	?contains@?$List@VModel@@@@QBE_NPBVModel@@@Z	; List<Model>::contains
PUBLIC	?removeItem@?$ListIter@VDebris@@@@QAEPAVDebris@@XZ ; ListIter<Debris>::removeItem
PUBLIC	?removeItem@?$ListIter@VExplosion@@@@QAEPAVExplosion@@XZ ; ListIter<Explosion>::removeItem
PUBLIC	?value@?$ListIter@VExplosion@@@@QAEPAVExplosion@@XZ ; ListIter<Explosion>::value
PUBLIC	?next@?$ListIter@VExplosion@@@@QAEPAVExplosion@@XZ ; ListIter<Explosion>::next
PUBLIC	?removeItem@?$ListIter@VShot@@@@QAEPAVShot@@XZ	; ListIter<Shot>::removeItem
PUBLIC	?destroy@?$List@VExplosion@@@@QAEXXZ		; List<Explosion>::destroy
PUBLIC	?remove@?$List@VExplosion@@@@QAEPAVExplosion@@PBV2@@Z ; List<Explosion>::remove
PUBLIC	?append@?$List@VExplosion@@@@QAEXPBVExplosion@@@Z ; List<Explosion>::append
PUBLIC	?destroy@?$List@VAsteroid@@@@QAEXXZ		; List<Asteroid>::destroy
PUBLIC	?remove@?$List@VAsteroid@@@@QAEPAVAsteroid@@PBV2@@Z ; List<Asteroid>::remove
PUBLIC	?append@?$List@VAsteroid@@@@QAEXPBVAsteroid@@@Z	; List<Asteroid>::append
PUBLIC	?destroy@?$List@VDebris@@@@QAEXXZ		; List<Debris>::destroy
PUBLIC	?remove@?$List@VDebris@@@@QAEPAVDebris@@PBV2@@Z	; List<Debris>::remove
PUBLIC	?append@?$List@VDebris@@@@QAEXPBVDebris@@@Z	; List<Debris>::append
PUBLIC	?remove@?$List@VDrone@@@@QAEPAVDrone@@PBV2@@Z	; List<Drone>::remove
PUBLIC	?append@?$List@VDrone@@@@QAEXPBVDrone@@@Z	; List<Drone>::append
PUBLIC	?destroy@?$List@VShot@@@@QAEXXZ			; List<Shot>::destroy
PUBLIC	?destroy@?$List@VShip@@@@QAEXXZ			; List<Ship>::destroy
PUBLIC	?removeItem@?$ListIter@VElement@@@@QAEPAVElement@@XZ ; ListIter<Element>::removeItem
PUBLIC	?value@?$ListIter@VSimSplash@@@@QAEPAVSimSplash@@XZ ; ListIter<SimSplash>::value
PUBLIC	?next@?$ListIter@VSimSplash@@@@QAEPAVSimSplash@@XZ ; ListIter<SimSplash>::next
PUBLIC	?destroy@?$List@VSimSplash@@@@QAEXXZ		; List<SimSplash>::destroy
PUBLIC	?append@?$List@VSimSplash@@@@QAEXPBVSimSplash@@@Z ; List<SimSplash>::append
PUBLIC	?value@?$ListIter@VSimHyper@@@@QAEPAVSimHyper@@XZ ; ListIter<SimHyper>::value
PUBLIC	?next@?$ListIter@VSimHyper@@@@QAEPAVSimHyper@@XZ ; ListIter<SimHyper>::next
PUBLIC	?destroy@?$List@VSimHyper@@@@QAEXXZ		; List<SimHyper>::destroy
PUBLIC	?append@?$List@VSimHyper@@@@QAEXPBVSimHyper@@@Z	; List<SimHyper>::append
PUBLIC	?destroy@?$List@VElement@@@@QAEXXZ		; List<Element>::destroy
PUBLIC	?remove@?$List@VElement@@@@QAEPAVElement@@PBV2@@Z ; List<Element>::remove
PUBLIC	?at@?$List@VElement@@@@QAEAAPAVElement@@H@Z	; List<Element>::at
PUBLIC	??A?$List@VElement@@@@QAEAAPAVElement@@H@Z	; List<Element>::operator[]
PUBLIC	?removeItem@?$ListIter@VShip@@@@QAEPAVShip@@XZ	; ListIter<Ship>::removeItem
PUBLIC	?destroy@?$List@VSimRegion@@@@QAEXXZ		; List<SimRegion>::destroy
PUBLIC	?clear@?$List@VSimRegion@@@@QAEXXZ		; List<SimRegion>::clear
PUBLIC	?removeIndex@?$List@VSimRegion@@@@QAEPAVSimRegion@@H@Z ; List<SimRegion>::removeIndex
PUBLIC	??A?$List@VSimRegion@@@@QAEAAPAVSimRegion@@H@Z	; List<SimRegion>::operator[]
PUBLIC	?isEmpty@?$List@VSimRegion@@@@QBE_NXZ		; List<SimRegion>::isEmpty
PUBLIC	??C?$ListIter@VSimRegion@@@@QAEPAVSimRegion@@XZ	; ListIter<SimRegion>::operator->
PUBLIC	??0?$List@VSimHyper@@@@QAE@XZ			; List<SimHyper>::List<SimHyper>
PUBLIC	??1?$List@VSimHyper@@@@QAE@XZ			; List<SimHyper>::~List<SimHyper>
PUBLIC	?size@?$List@VSimHyper@@@@QBEHXZ		; List<SimHyper>::size
PUBLIC	??0?$ListIter@VSimHyper@@@@QAE@AAV?$List@VSimHyper@@@@@Z ; ListIter<SimHyper>::ListIter<SimHyper>
PUBLIC	??E?$ListIter@VSimHyper@@@@QAEHXZ		; ListIter<SimHyper>::operator++
PUBLIC	??0?$List@VSimSplash@@@@QAE@XZ			; List<SimSplash>::List<SimSplash>
PUBLIC	??1?$List@VSimSplash@@@@QAE@XZ			; List<SimSplash>::~List<SimSplash>
PUBLIC	?size@?$List@VSimSplash@@@@QBEHXZ		; List<SimSplash>::size
PUBLIC	??0?$ListIter@VSimSplash@@@@QAE@AAV?$List@VSimSplash@@@@@Z ; ListIter<SimSplash>::ListIter<SimSplash>
PUBLIC	??E?$ListIter@VSimSplash@@@@QAEHXZ		; ListIter<SimSplash>::operator++
PUBLIC	??0?$List@VDrone@@@@QAE@XZ			; List<Drone>::List<Drone>
PUBLIC	??1?$List@VDrone@@@@QAE@XZ			; List<Drone>::~List<Drone>
PUBLIC	??0?$List@VDebris@@@@QAE@XZ			; List<Debris>::List<Debris>
PUBLIC	??1?$List@VDebris@@@@QAE@XZ			; List<Debris>::~List<Debris>
PUBLIC	?size@?$List@VDebris@@@@QBEHXZ			; List<Debris>::size
PUBLIC	??0?$List@VAsteroid@@@@QAE@XZ			; List<Asteroid>::List<Asteroid>
PUBLIC	??1?$List@VAsteroid@@@@QAE@XZ			; List<Asteroid>::~List<Asteroid>
PUBLIC	??0?$List@VExplosion@@@@QAE@XZ			; List<Explosion>::List<Explosion>
PUBLIC	??1?$List@VExplosion@@@@QAE@XZ			; List<Explosion>::~List<Explosion>
PUBLIC	??0?$ListIter@VExplosion@@@@QAE@AAV?$List@VExplosion@@@@@Z ; ListIter<Explosion>::ListIter<Explosion>
PUBLIC	??E?$ListIter@VExplosion@@@@QAEHXZ		; ListIter<Explosion>::operator++
PUBLIC	??C?$ListIter@VExplosion@@@@QAEPAVExplosion@@XZ	; ListIter<Explosion>::operator->
PUBLIC	??C?$ListIter@VDebris@@@@QAEPAVDebris@@XZ	; ListIter<Debris>::operator->
PUBLIC	??C?$ListIter@VAsteroid@@@@QAEPAVAsteroid@@XZ	; ListIter<Asteroid>::operator->
PUBLIC	??D?$ListIter@VText@@@@QAEAAVText@@XZ		; ListIter<Text>::operator*
PUBLIC	??0?$ListIter@VModel@@@@QAE@AAV?$List@VModel@@@@@Z ; ListIter<Model>::ListIter<Model>
PUBLIC	??E?$ListIter@VModel@@@@QAEHXZ			; ListIter<Model>::operator++
PUBLIC	?CommitMission@SimRegion@@IAEXXZ		; SimRegion::CommitMission
PUBLIC	?ResolveTimeSkip@SimRegion@@QAEXN@Z		; SimRegion::ResolveTimeSkip
PUBLIC	?CanTimeSkip@SimRegion@@QBE_NXZ			; SimRegion::CanTimeSkip
PUBLIC	?UpdateTracks@SimRegion@@IAEXN@Z		; SimRegion::UpdateTracks
PUBLIC	?TranslateObject@SimRegion@@IAEXPAVSimObject@@@Z ; SimRegion::TranslateObject
PUBLIC	?InsertObject@SimRegion@@UAEXPAVAsteroid@@@Z	; SimRegion::InsertObject
PUBLIC	?InsertObject@SimRegion@@UAEXPAVDebris@@@Z	; SimRegion::InsertObject
PUBLIC	?InsertObject@SimRegion@@UAEXPAVExplosion@@@Z	; SimRegion::InsertObject
PUBLIC	?InsertObject@SimRegion@@UAEXPAVShot@@@Z	; SimRegion::InsertObject
PUBLIC	?InsertObject@SimRegion@@UAEXPAVShip@@@Z	; SimRegion::InsertObject
PUBLIC	?DockShips@SimRegion@@IAEXXZ			; SimRegion::DockShips
PUBLIC	?FindShotByObjID@SimRegion@@UAEPAVShot@@K@Z	; SimRegion::FindShotByObjID
PUBLIC	?FindShipByObjID@SimRegion@@UAEPAVShip@@K@Z	; SimRegion::FindShipByObjID
PUBLIC	?FindShip@SimRegion@@QAEPAVShip@@PBD@Z		; SimRegion::FindShip
PUBLIC	?NetDockShip@SimRegion@@IAEXPAVShip@@0PAVFlightDeck@@@Z ; SimRegion::NetDockShip
PUBLIC	?DestroyShip@SimRegion@@IAEXPAVShip@@@Z		; SimRegion::DestroyShip
PUBLIC	?DestroyShips@SimRegion@@IAEXXZ			; SimRegion::DestroyShips
PUBLIC	?CrashShips@SimRegion@@IAEXXZ			; SimRegion::CrashShips
PUBLIC	?CollideShips@SimRegion@@IAEXXZ			; SimRegion::CollideShips
PUBLIC	?DamageShips@SimRegion@@IAEXXZ			; SimRegion::DamageShips
PUBLIC	?UpdateExplosions@SimRegion@@IAEXN@Z		; SimRegion::UpdateExplosions
PUBLIC	?UpdateShots@SimRegion@@IAEXN@Z			; SimRegion::UpdateShots
PUBLIC	?UpdateShips@SimRegion@@IAEXN@Z			; SimRegion::UpdateShips
PUBLIC	?UpdateSky@SimRegion@@IAEXNABUPoint@@@Z		; SimRegion::UpdateSky
PUBLIC	?ShowGrid@SimRegion@@QAEXH@Z			; SimRegion::ShowGrid
PUBLIC	?ExecFrame@SimRegion@@UAEXN@Z			; SimRegion::ExecFrame
PUBLIC	?Deactivate@SimRegion@@UAEXXZ			; SimRegion::Deactivate
PUBLIC	?Activate@SimRegion@@UAEXXZ			; SimRegion::Activate
PUBLIC	?AddSelection@SimRegion@@QAEXPAVShip@@@Z	; SimRegion::AddSelection
PUBLIC	?ClearSelection@SimRegion@@QAEXXZ		; SimRegion::ClearSelection
PUBLIC	?SetSelection@SimRegion@@QAEXPAVShip@@@Z	; SimRegion::SetSelection
PUBLIC	?GetSelection@SimRegion@@QAE?AV?$ListIter@VShip@@@@XZ ; SimRegion::GetSelection
PUBLIC	?IsSelected@SimRegion@@QAE_NPAVShip@@@Z		; SimRegion::IsSelected
PUBLIC	?NextView@SimRegion@@QAEXXZ			; SimRegion::NextView
PUBLIC	?AttachPlayerShip@SimRegion@@IAEXH@Z		; SimRegion::AttachPlayerShip
PUBLIC	?SetPlayerShip@SimRegion@@QAEXPAVShip@@@Z	; SimRegion::SetPlayerShip
PUBLIC	??1SimRegion@@UAE@XZ				; SimRegion::~SimRegion
PUBLIC	??0SimRegion@@QAE@PAVSim@@PAVOrbitalRegion@@@Z	; SimRegion::SimRegion
PUBLIC	??_GSimRegion@@UAEPAXI@Z			; SimRegion::`scalar deleting destructor'
PUBLIC	??0SimRegion@@QAE@PAVSim@@PBDH@Z		; SimRegion::SimRegion
PUBLIC	?FindSquadron@Sim@@IAEPAVHangar@@PBDAAH@Z	; Sim::FindSquadron
PUBLIC	?CreateMissionElement@Sim@@IAEPAVMissionElement@@PAVElement@@@Z ; Sim::CreateMissionElement
PUBLIC	?SkipCutscene@Sim@@QAEXXZ			; Sim::SkipCutscene
PUBLIC	?ResolveSplashList@Sim@@QAEXXZ			; Sim::ResolveSplashList
PUBLIC	?ResolveHyperList@Sim@@QAEXXZ			; Sim::ResolveHyperList
PUBLIC	?ExecEvents@Sim@@QAEXN@Z			; Sim::ExecEvents
PUBLIC	?ExecFrame@Sim@@UAEXN@Z				; Sim::ExecFrame
PUBLIC	?FindNearestRegion@Sim@@QAEPAVSimRegion@@PAVSimObject@@H@Z ; Sim::FindNearestRegion
PUBLIC	?FindRegion@Sim@@QAEPAVSimRegion@@PAVOrbitalRegion@@@Z ; Sim::FindRegion
PUBLIC	?SetTestMode@Sim@@QAEX_N@Z			; Sim::SetTestMode
PUBLIC	?SetSelection@Sim@@QAEXPAVShip@@@Z		; Sim::SetSelection
PUBLIC	?AddSelection@Sim@@QAEXPAVShip@@@Z		; Sim::AddSelection
PUBLIC	?ClearSelection@Sim@@QAEXXZ			; Sim::ClearSelection
PUBLIC	?GetSelection@Sim@@QAE?AV?$ListIter@VShip@@@@XZ	; Sim::GetSelection
PUBLIC	?IsSelected@Sim@@QAE_NPAVShip@@@Z		; Sim::IsSelected
PUBLIC	?NextView@Sim@@QAEXXZ				; Sim::NextView
PUBLIC	?GridShown@Sim@@QBE_NXZ				; Sim::GridShown
PUBLIC	?CreateSplashDamage@Sim@@QAEXPAVShot@@@Z	; Sim::CreateSplashDamage
PUBLIC	?CreateAsteroid@Sim@@QAEPAVAsteroid@@ABUPoint@@HNPAVSimRegion@@@Z ; Sim::CreateAsteroid
PUBLIC	?FindShotByObjID@Sim@@UAEPAVShot@@K@Z		; Sim::FindShotByObjID
PUBLIC	?FindShipByObjID@Sim@@UAEPAVShip@@K@Z		; Sim::FindShipByObjID
PUBLIC	??_GResource@@UAEPAXI@Z				; Resource::`scalar deleting destructor'
PUBLIC	??0Resource@@QAE@ABV0@@Z			; Resource::Resource
PUBLIC	??_GBitmap@@UAEPAXI@Z				; Bitmap::`scalar deleting destructor'
PUBLIC	??0Bitmap@@QAE@ABV0@@Z				; Bitmap::Bitmap
PUBLIC	??0MissionEvent@@QAE@ABV0@@Z			; MissionEvent::MissionEvent
PUBLIC	?CopyEvents@Sim@@IAEXXZ				; Sim::CopyEvents
PUBLIC	?CreateElements@Sim@@IAEXXZ			; Sim::CreateElements
PUBLIC	?BuildLinks@Sim@@IAEXXZ				; Sim::BuildLinks
PUBLIC	?CreateRegions@Sim@@IAEXXZ			; Sim::CreateRegions
PUBLIC	?ExecMission@Sim@@QAEXXZ			; Sim::ExecMission
PUBLIC	?LoadMission@Sim@@QAEXPAVMission@@_N@Z		; Sim::LoadMission
PUBLIC	?IsComplete@Sim@@QBE_NXZ			; Sim::IsComplete
PUBLIC	??1Sim@@UAE@XZ					; Sim::~Sim
PUBLIC	??_GSim@@UAEPAXI@Z				; Sim::`scalar deleting destructor'
PUBLIC	??0Sim@@QAE@PAVMotionController@@@Z		; Sim::Sim
PUBLIC	??0SimSplash@@QAE@PAVSimRegion@@ABUPoint@@NN@Z	; SimSplash::SimSplash
PUBLIC	??0SimHyper@@QAE@PAVShip@@PAVSimRegion@@ABUPoint@@H_N00@Z ; SimHyper::SimHyper
PUBLIC	?SetRegion@CombatGroup@@QAEXVText@@@Z		; CombatGroup::SetRegion
PUBLIC	?IsActive@MissionEvent@@QBE_NXZ			; MissionEvent::IsActive
PUBLIC	?IsPending@MissionEvent@@QBE_NXZ		; MissionEvent::IsPending
PUBLIC	?SetProbes@MissionShip@@QAEXH@Z			; MissionShip::SetProbes
PUBLIC	?SetDecoys@MissionShip@@QAEXH@Z			; MissionShip::SetDecoys
PUBLIC	?GetSkin@MissionShip@@QBEPBVSkin@@XZ		; MissionShip::GetSkin
PUBLIC	?AddInstruction@MissionElement@@QAEXPBD@Z	; MissionElement::AddInstruction
PUBLIC	?SetZoneLock@MissionElement@@QAEXH@Z		; MissionElement::SetZoneLock
PUBLIC	?SetRogue@MissionElement@@QAEX_N@Z		; MissionElement::SetRogue
PUBLIC	?SetPath@MissionElement@@QAEXPBD@Z		; MissionElement::SetPath
PUBLIC	?IsInvulnerable@MissionElement@@QBE_NXZ		; MissionElement::IsInvulnerable
PUBLIC	?IsRogue@MissionElement@@QBE_NXZ		; MissionElement::IsRogue
PUBLIC	?Stardate@Mission@@QBENXZ			; Mission::Stardate
PUBLIC	?TYPENAME@Explosion@@SAPBDXZ			; Explosion::TYPENAME
PUBLIC	?SetLife@Drone@@QAEXH@Z				; Drone::SetLife
PUBLIC	?TYPENAME@Drone@@SAPBDXZ			; Drone::TYPENAME
PUBLIC	?SetHitTarget@Shot@@QAEX_N@Z			; Shot::SetHitTarget
PUBLIC	?SetCount@Element@@QAEXH@Z			; Element::SetCount
PUBLIC	?GetCount@Element@@QBEHXZ			; Element::GetCount
PUBLIC	?GetSquadron@Element@@QBEABVText@@XZ		; Element::GetSquadron
PUBLIC	?SetCommandAILevel@Element@@QAEXH@Z		; Element::SetCommandAILevel
PUBLIC	?GetCommandAILevel@Element@@QBEHXZ		; Element::GetCommandAILevel
PUBLIC	?GetAssignment@Element@@QBEPAV1@XZ		; Element::GetAssignment
PUBLIC	?SetPlayable@Element@@QAEX_N@Z			; Element::SetPlayable
PUBLIC	?SetRogue@Element@@QAEX_N@Z			; Element::SetRogue
PUBLIC	?IsPlayable@Element@@QBE_NXZ			; Element::IsPlayable
PUBLIC	?IsRogue@Element@@QBE_NXZ			; Element::IsRogue
PUBLIC	?SetPlayer@Element@@QAEXH@Z			; Element::SetPlayer
PUBLIC	?Player@Element@@QBEHXZ				; Element::Player
PUBLIC	?RespawnLoc@Ship@@QBEABUPoint@@XZ		; Ship::RespawnLoc
PUBLIC	?UseSkin@Ship@@QAEXPBVSkin@@@Z			; Ship::UseSkin
PUBLIC	?Registry@Ship@@QBEPBDXZ			; Ship::Registry
PUBLIC	?GetCarrier@Ship@@QBEPAV1@XZ			; Ship::GetCarrier
PUBLIC	?SetInvulnerable@Ship@@QAEX_N@Z			; Ship::SetInvulnerable
PUBLIC	?SetAIMode@Ship@@QAEXH@Z			; Ship::SetAIMode
PUBLIC	?Links@OrbitalRegion@@QAEAAV?$List@VText@@@@XZ	; OrbitalRegion::Links
PUBLIC	?Asteroids@OrbitalRegion@@QBEHXZ		; OrbitalRegion::Asteroids
PUBLIC	?System@Orbital@@QBEPAVStarSystem@@XZ		; Orbital::System
PUBLIC	?NumDust@StarSystem@@QBEHXZ			; StarSystem::NumDust
PUBLIC	??8Model@@QBEHABV0@@Z				; Model::operator==
PUBLIC	?Dust@Starshatter@@QAEHXZ			; Starshatter::Dust
PUBLIC	?GetMaxFrameLength@Game@@SANXZ			; Game::GetMaxFrameLength
PUBLIC	?TYPENAME@SimObserver@@SAPBDXZ			; SimObserver::TYPENAME
PUBLIC	?AddCommandPoints@ShipStats@@QAEXH@Z		; ShipStats::AddCommandPoints
PUBLIC	?SetShipClass@ShipStats@@QAEXH@Z		; ShipStats::SetShipClass
PUBLIC	?IsPlayer@ShipStats@@QBE_NXZ			; ShipStats::IsPlayer
PUBLIC	?GetElementIndex@ShipStats@@QBEHXZ		; ShipStats::GetElementIndex
PUBLIC	?GetCombatGroup@ShipStats@@QBEPAVCombatGroup@@XZ ; ShipStats::GetCombatGroup
PUBLIC	?GetPlayerShip@SimRegion@@QAEPAVShip@@XZ	; SimRegion::GetPlayerShip
PUBLIC	?IsTestMode@Sim@@QBE_NXZ			; Sim::IsTestMode
PUBLIC	?Yaw@Physical@@QBENXZ				; Physical::Yaw
PUBLIC	?Pitch@Physical@@QBENXZ				; Physical::Pitch
PUBLIC	?Roll@Physical@@QBENXZ				; Physical::Roll
PUBLIC	??_GUniverse@@UAEPAXI@Z				; Universe::`scalar deleting destructor'
PUBLIC	?ExecFrame@Universe@@UAEXN@Z			; Universe::ExecFrame
PUBLIC	??1Universe@@UAE@XZ				; Universe::~Universe
PUBLIC	??0Universe@@QAE@XZ				; Universe::Universe
PUBLIC	?CreateShot@Sim@@QAEPAVShot@@ABUPoint@@ABVCamera@@PAVWeaponDesign@@PBVShip@@PAVSimRegion@@@Z ; Sim::CreateShot
PUBLIC	?CreateSplashDamage@Sim@@QAEXPAVShip@@@Z	; Sim::CreateSplashDamage
PUBLIC	?CreateDebris@Sim@@QAEPAVDebris@@ABUPoint@@0PAVModel@@NPAVSimRegion@@@Z ; Sim::CreateDebris
PUBLIC	?ResolveTimeSkip@Sim@@QAEXN@Z			; Sim::ResolveTimeSkip
PUBLIC	?IsActive@Sim@@QBE_NXZ				; Sim::IsActive
PUBLIC	?FindNearestSpaceRegion@Sim@@QAEPAVSimRegion@@PAVSimObject@@@Z ; Sim::FindNearestSpaceRegion
PUBLIC	??NSimRegion@@QBEHABV0@@Z			; SimRegion::operator<=
PUBLIC	??MSimRegion@@QBEHABV0@@Z			; SimRegion::operator<
PUBLIC	?NetDockShip@Sim@@QAEXPAVShip@@0PAVFlightDeck@@@Z ; Sim::NetDockShip
PUBLIC	?GetSystemList@Sim@@QAEAAV?$List@VStarSystem@@@@XZ ; Sim::GetSystemList
PUBLIC	?MissionClock@Sim@@QBENXZ			; Sim::MissionClock
PUBLIC	?FindOrbitalBody@Sim@@QAEPAVOrbital@@PBD@Z	; Sim::FindOrbitalBody
PUBLIC	?FormatGameTime@@YAPBDXZ			; FormatGameTime
PUBLIC	?GetMissionElements@Sim@@QAE?AV?$ListIter@VMissionElement@@@@XZ ; Sim::GetMissionElements
PUBLIC	?FindRegion@Sim@@QAEPAVSimRegion@@PBD@Z		; Sim::FindRegion
PUBLIC	?TrackList@SimRegion@@QAEAAV?$List@VContact@@@@H@Z ; SimRegion::TrackList
PUBLIC	?ShowGrid@Sim@@QAEXH@Z				; Sim::ShowGrid
PUBLIC	?DestroyShip@Sim@@QAEXPAVShip@@@Z		; Sim::DestroyShip
PUBLIC	?CreateShip@Sim@@QAEPAVShip@@PBD0PAVShipDesign@@0ABUPoint@@HHPBH@Z ; Sim::CreateShip
PUBLIC	?DestroyElement@Sim@@QAEXPAVElement@@@Z		; Sim::DestroyElement
PUBLIC	?FindElement@Sim@@QAEPAVElement@@PBD@Z		; Sim::FindElement
PUBLIC	?ProcessEventTrigger@Sim@@QAEXHHPBDH@Z		; Sim::ProcessEventTrigger
PUBLIC	?RequestHyperJump@Sim@@QAEXPAVShip@@PAVSimRegion@@ABUPoint@@H00@Z ; Sim::RequestHyperJump
PUBLIC	?FindShip@Sim@@QAEPAVShip@@PBD0@Z		; Sim::FindShip
PUBLIC	?FindNearestTerrainRegion@Sim@@QAEPAVSimRegion@@PAVSimObject@@@Z ; Sim::FindNearestTerrainRegion
PUBLIC	?CreateExplosion@Sim@@QAEPAVExplosion@@ABUPoint@@0HMMPAVSimRegion@@PAVSimObject@@PAVSystem@@@Z ; Sim::CreateExplosion
PUBLIC	?GetPlayerElement@Sim@@QAEPAVElement@@XZ	; Sim::GetPlayerElement
PUBLIC	?GetPlayerShip@Sim@@QAEPAVShip@@XZ		; Sim::GetPlayerShip
PUBLIC	?UnloadMission@Sim@@QAEXXZ			; Sim::UnloadMission
PUBLIC	?CommitMission@Sim@@QAEXXZ			; Sim::CommitMission
PUBLIC	?GetAssignedElements@Sim@@QAEHPAVElement@@AAV?$List@VElement@@@@@Z ; Sim::GetAssignedElements
PUBLIC	?CreateElement@Sim@@QAEPAVElement@@PBDHH@Z	; Sim::CreateElement
PUBLIC	?FindAvailCallsign@Sim@@QAEPBDH@Z		; Sim::FindAvailCallsign
PUBLIC	?ActivateRegion@Sim@@QAE_NPAVSimRegion@@@Z	; Sim::ActivateRegion
PUBLIC	?FindNearestSpaceRegion@Sim@@QAEPAVSimRegion@@PAVOrbital@@@Z ; Sim::FindNearestSpaceRegion
EXTRN	??_EResource@@UAEPAXI@Z:PROC			; Resource::`vector deleting destructor'
EXTRN	??_ESim@@UAEPAXI@Z:PROC				; Sim::`vector deleting destructor'
EXTRN	??_EUniverse@@UAEPAXI@Z:PROC			; Universe::`vector deleting destructor'
EXTRN	??_ESimRegion@@UAEPAXI@Z:PROC			; SimRegion::`vector deleting destructor'
;	COMDAT ?empty@?1??TrackList@SimRegion@@QAEAAV?$List@VContact@@@@H@Z@4V3@A
_BSS	SEGMENT
?empty@?1??TrackList@SimRegion@@QAEAAV?$List@VContact@@@@H@Z@4V3@A DB 0cH DUP (?) ; `SimRegion::TrackList'::`2'::empty
_BSS	ENDS
;	COMDAT ?dummy_system_list@?1??GetSystemList@Sim@@QAEAAV?$List@VStarSystem@@@@XZ@4V3@A
_BSS	SEGMENT
?dummy_system_list@?1??GetSystemList@Sim@@QAEAAV?$List@VStarSystem@@@@XZ@4V3@A DB 0cH DUP (?) ; `Sim::GetSystemList'::`2'::dummy_system_list
_BSS	ENDS
;	COMDAT ?empty@?1??GetSelection@Sim@@QAE?AV?$ListIter@VShip@@@@XZ@4V?$List@VShip@@@@A
_BSS	SEGMENT
?empty@?1??GetSelection@Sim@@QAE?AV?$ListIter@VShip@@@@XZ@4V?$List@VShip@@@@A DB 0cH DUP (?) ; `Sim::GetSelection'::`2'::empty
_BSS	ENDS
;	COMDAT ?$TSS0@?1??GetSelection@Sim@@QAE?AV?$ListIter@VShip@@@@XZ@4HA
_BSS	SEGMENT
?$TSS0@?1??GetSelection@Sim@@QAE?AV?$ListIter@VShip@@@@XZ@4HA DD 01H DUP (?) ; TSS0<`template-parameter-2',Sim::tSelection,unsigned char * const,ListIter<Ship>,void,int, ?? &>
_BSS	ENDS
;	COMDAT ?$TSS0@?1??TrackList@SimRegion@@QAEAAV?$List@VContact@@@@H@Z@4HA
_BSS	SEGMENT
?$TSS0@?1??TrackList@SimRegion@@QAEAAV?$List@VContact@@@@H@Z@4HA DD 01H DUP (?) ; TSS0<`template-parameter-2',SimRegion::rackList,unsigned char * const,List<Contact> &,int>
_BSS	ENDS
;	COMDAT ?txt@?1??FormatGameTime@@YAPBDXZ@4PADA
_BSS	SEGMENT
?txt@?1??FormatGameTime@@YAPBDXZ@4PADA DB 040H DUP (?)	; `FormatGameTime'::`2'::txt
_BSS	ENDS
;	COMDAT ?$TSS0@?1??GetSystemList@Sim@@QAEAAV?$List@VStarSystem@@@@XZ@4HA
_BSS	SEGMENT
?$TSS0@?1??GetSystemList@Sim@@QAEAAV?$List@VStarSystem@@@@XZ@4HA DD 01H DUP (?) ; TSS0<`template-parameter-2',Sim::tSystemList,unsigned char * const,List<StarSystem> &,void,int, ?? &>
_BSS	ENDS
;	COMDAT xdata$x
xdata$x	SEGMENT
__unwindtable$?AddInstruction@MissionElement@@QAEXPBD@Z DD 0ffffffffH
	DD	FLAT:__unwindfunclet$?AddInstruction@MissionElement@@QAEXPBD@Z$0
__ehfuncinfo$?AddInstruction@MissionElement@@QAEXPBD@Z DD 019930522H
	DD	01H
	DD	FLAT:__unwindtable$?AddInstruction@MissionElement@@QAEXPBD@Z
	DD	2 DUP(00H)
	DD	2 DUP(00H)
	DD	00H
	DD	01H
xdata$x	ENDS
;	COMDAT xdata$x
xdata$x	SEGMENT
__unwindtable$?SetRegion@CombatGroup@@QAEXVText@@@Z DD 0ffffffffH
	DD	FLAT:__unwindfunclet$?SetRegion@CombatGroup@@QAEXVText@@@Z$0
__ehfuncinfo$?SetRegion@CombatGroup@@QAEXVText@@@Z DD 019930522H
	DD	01H
	DD	FLAT:__unwindtable$?SetRegion@CombatGroup@@QAEXVText@@@Z
	DD	2 DUP(00H)
	DD	2 DUP(00H)
	DD	00H
	DD	01H
xdata$x	ENDS
;	COMDAT xdata$x
xdata$x	SEGMENT
__ehfuncinfo$??0MissionEvent@@QAE@ABV0@@Z DD 019930522H
	DD	06H
	DD	FLAT:__unwindtable$??0MissionEvent@@QAE@ABV0@@Z
	DD	2 DUP(00H)
	DD	2 DUP(00H)
	DD	00H
	DD	01H
__unwindtable$??0MissionEvent@@QAE@ABV0@@Z DD 0ffffffffH
	DD	FLAT:__unwindfunclet$??0MissionEvent@@QAE@ABV0@@Z$0
	DD	00H
	DD	FLAT:__unwindfunclet$??0MissionEvent@@QAE@ABV0@@Z$1
	DD	01H
	DD	FLAT:__unwindfunclet$??0MissionEvent@@QAE@ABV0@@Z$2
	DD	02H
	DD	FLAT:__unwindfunclet$??0MissionEvent@@QAE@ABV0@@Z$3
	DD	03H
	DD	FLAT:__unwindfunclet$??0MissionEvent@@QAE@ABV0@@Z$4
	DD	04H
	DD	FLAT:__unwindfunclet$??0MissionEvent@@QAE@ABV0@@Z$5
	ORG $+256
__unwindtable$?CreateElement@Sim@@QAEPAVElement@@PBDHH@Z DD 0ffffffffH
	DD	FLAT:__unwindfunclet$?CreateElement@Sim@@QAEPAVElement@@PBDHH@Z$0
__unwindtable$?CreateExplosion@Sim@@QAEPAVExplosion@@ABUPoint@@0HMMPAVSimRegion@@PAVSimObject@@PAVSystem@@@Z DD 0ffffffffH
	DD	FLAT:__unwindfunclet$?CreateExplosion@Sim@@QAEPAVExplosion@@ABUPoint@@0HMMPAVSimRegion@@PAVSimObject@@PAVSystem@@@Z$0
__unwindtable$?CreateShip@Sim@@QAEPAVShip@@PBD0PAVShipDesign@@0ABUPoint@@HHPBH@Z DD 0ffffffffH
	DD	FLAT:__unwindfunclet$?CreateShip@Sim@@QAEPAVShip@@PBD0PAVShipDesign@@0ABUPoint@@HHPBH@Z$0
__unwindtable$?CreateDebris@Sim@@QAEPAVDebris@@ABUPoint@@0PAVModel@@NPAVSimRegion@@@Z DD 0ffffffffH
	DD	FLAT:__unwindfunclet$?CreateDebris@Sim@@QAEPAVDebris@@ABUPoint@@0PAVModel@@NPAVSimRegion@@@Z$0
__unwindtable$?CreateSplashDamage@Sim@@QAEXPAVShip@@@Z DD 0ffffffffH
	DD	FLAT:__unwindfunclet$?CreateSplashDamage@Sim@@QAEXPAVShip@@@Z$0
__unwindtable$?LoadMission@Sim@@QAEXPAVMission@@_N@Z DD 0ffffffffH
	DD	FLAT:__unwindfunclet$?LoadMission@Sim@@QAEXPAVMission@@_N@Z$0
__unwindtable$?ExecMission@Sim@@QAEXXZ DD 0ffffffffH
	DD	FLAT:__unwindfunclet$?ExecMission@Sim@@QAEXXZ$0
__unwindtable$?CreateAsteroid@Sim@@QAEPAVAsteroid@@ABUPoint@@HNPAVSimRegion@@@Z DD 0ffffffffH
	DD	FLAT:__unwindfunclet$?CreateAsteroid@Sim@@QAEPAVAsteroid@@ABUPoint@@HNPAVSimRegion@@@Z$0
__unwindtable$?CreateSplashDamage@Sim@@QAEXPAVShot@@@Z DD 0ffffffffH
	DD	FLAT:__unwindfunclet$?CreateSplashDamage@Sim@@QAEXPAVShot@@@Z$0
__unwindtable$?ResolveHyperList@Sim@@QAEXXZ DD 0ffffffffH
	DD	FLAT:__unwindfunclet$?ResolveHyperList@Sim@@QAEXXZ$0
__unwindtable$?DestroyShip@SimRegion@@IAEXPAVShip@@@Z DD 0ffffffffH
	DD	FLAT:__unwindfunclet$?DestroyShip@SimRegion@@IAEXPAVShip@@@Z$0
	ORG $+328
__unwindtable$?CreateShot@Sim@@QAEPAVShot@@ABUPoint@@ABVCamera@@PAVWeaponDesign@@PBVShip@@PAVSimRegion@@@Z DD 0ffffffffH
	DD	FLAT:__unwindfunclet$?CreateShot@Sim@@QAEPAVShot@@ABUPoint@@ABVCamera@@PAVWeaponDesign@@PBVShip@@PAVSimRegion@@@Z$0
	DD	0ffffffffH
	DD	FLAT:__unwindfunclet$?CreateShot@Sim@@QAEPAVShot@@ABUPoint@@ABVCamera@@PAVWeaponDesign@@PBVShip@@PAVSimRegion@@@Z$1
	ORG $+2156
__unwindtable$?ProcessEventTrigger@Sim@@QAEXHHPBDH@Z DD 0ffffffffH
	DD	FLAT:__unwindfunclet$?ProcessEventTrigger@Sim@@QAEXHHPBDH@Z$0
	DD	00H
	DD	FLAT:__unwindfunclet$?ProcessEventTrigger@Sim@@QAEXHHPBDH@Z$1
	DD	00H
	DD	FLAT:__unwindfunclet$?ProcessEventTrigger@Sim@@QAEXHHPBDH@Z$2
__unwindtable$?CreateRegions@Sim@@IAEXXZ DD 0ffffffffH
	DD	FLAT:__unwindfunclet$?CreateRegions@Sim@@IAEXXZ$0
	DD	0ffffffffH
	DD	FLAT:__unwindfunclet$?CreateRegions@Sim@@IAEXXZ$1
	DD	0ffffffffH
	DD	FLAT:__unwindfunclet$?CreateRegions@Sim@@IAEXXZ$2
__unwindtable$?CollideShips@SimRegion@@IAEXXZ DD 0ffffffffH
	DD	FLAT:__unwindfunclet$?CollideShips@SimRegion@@IAEXXZ$0
	DD	00H
	DD	FLAT:__unwindfunclet$?CollideShips@SimRegion@@IAEXXZ$1
	DD	00H
	DD	FLAT:__unwindfunclet$?CollideShips@SimRegion@@IAEXXZ$2
__unwindtable$?CommitMission@SimRegion@@IAEXXZ DD 0ffffffffH
	DD	FLAT:__unwindfunclet$?CommitMission@SimRegion@@IAEXXZ$3
	DD	0ffffffffH
	DD	FLAT:__unwindfunclet$?CommitMission@SimRegion@@IAEXXZ$4
	DD	0ffffffffH
	DD	FLAT:__unwindfunclet$?CommitMission@SimRegion@@IAEXXZ$5
	ORG $+7492
__ehfuncinfo$?CreateElement@Sim@@QAEPAVElement@@PBDHH@Z DD 019930522H
	DD	01H
	DD	FLAT:__unwindtable$?CreateElement@Sim@@QAEPAVElement@@PBDHH@Z
	DD	2 DUP(00H)
	DD	2 DUP(00H)
	DD	00H
	DD	01H
__ehfuncinfo$?CreateExplosion@Sim@@QAEPAVExplosion@@ABUPoint@@0HMMPAVSimRegion@@PAVSimObject@@PAVSystem@@@Z DD 019930522H
	DD	01H
	DD	FLAT:__unwindtable$?CreateExplosion@Sim@@QAEPAVExplosion@@ABUPoint@@0HMMPAVSimRegion@@PAVSimObject@@PAVSystem@@@Z
	DD	2 DUP(00H)
	DD	2 DUP(00H)
	DD	00H
	DD	01H
__ehfuncinfo$?ProcessEventTrigger@Sim@@QAEXHHPBDH@Z DD 019930522H
	DD	03H
	DD	FLAT:__unwindtable$?ProcessEventTrigger@Sim@@QAEXHHPBDH@Z
	DD	2 DUP(00H)
	DD	2 DUP(00H)
	DD	00H
	DD	01H
__ehfuncinfo$?CreateShip@Sim@@QAEPAVShip@@PBD0PAVShipDesign@@0ABUPoint@@HHPBH@Z DD 019930522H
	DD	01H
	DD	FLAT:__unwindtable$?CreateShip@Sim@@QAEPAVShip@@PBD0PAVShipDesign@@0ABUPoint@@HHPBH@Z
	DD	2 DUP(00H)
	DD	2 DUP(00H)
	DD	00H
	DD	01H
__ehfuncinfo$?CreateDebris@Sim@@QAEPAVDebris@@ABUPoint@@0PAVModel@@NPAVSimRegion@@@Z DD 019930522H
	DD	01H
	DD	FLAT:__unwindtable$?CreateDebris@Sim@@QAEPAVDebris@@ABUPoint@@0PAVModel@@NPAVSimRegion@@@Z
	DD	2 DUP(00H)
	DD	2 DUP(00H)
	DD	00H
	DD	01H
__ehfuncinfo$?CreateSplashDamage@Sim@@QAEXPAVShip@@@Z DD 019930522H
	DD	01H
	DD	FLAT:__unwindtable$?CreateSplashDamage@Sim@@QAEXPAVShip@@@Z
	DD	2 DUP(00H)
	DD	2 DUP(00H)
	DD	00H
	DD	01H
__ehfuncinfo$?CreateShot@Sim@@QAEPAVShot@@ABUPoint@@ABVCamera@@PAVWeaponDesign@@PBVShip@@PAVSimRegion@@@Z DD 019930522H
	DD	02H
	DD	FLAT:__unwindtable$?CreateShot@Sim@@QAEPAVShot@@ABUPoint@@ABVCamera@@PAVWeaponDesign@@PBVShip@@PAVSimRegion@@@Z
	DD	2 DUP(00H)
	DD	2 DUP(00H)
	DD	00H
	DD	01H
__ehfuncinfo$??0Sim@@QAE@PAVMotionController@@@Z DD 019930522H
	DD	0aH
	DD	FLAT:__unwindtable$??0Sim@@QAE@PAVMotionController@@@Z
	DD	2 DUP(00H)
	DD	2 DUP(00H)
	DD	00H
	DD	01H
__ehfuncinfo$??1Sim@@UAE@XZ DD 019930522H
	DD	00H
	DD	00H
	DD	2 DUP(00H)
	DD	2 DUP(00H)
	DD	00H
	DD	05H
__ehfuncinfo$?LoadMission@Sim@@QAEXPAVMission@@_N@Z DD 019930522H
	DD	01H
	DD	FLAT:__unwindtable$?LoadMission@Sim@@QAEXPAVMission@@_N@Z
	DD	2 DUP(00H)
	DD	2 DUP(00H)
	DD	00H
	DD	01H
__ehfuncinfo$?ExecMission@Sim@@QAEXXZ DD 019930522H
	DD	01H
	DD	FLAT:__unwindtable$?ExecMission@Sim@@QAEXXZ
	DD	2 DUP(00H)
	DD	2 DUP(00H)
	DD	00H
	DD	01H
__ehfuncinfo$?CreateRegions@Sim@@IAEXXZ DD 019930522H
	DD	03H
	DD	FLAT:__unwindtable$?CreateRegions@Sim@@IAEXXZ
	DD	2 DUP(00H)
	DD	2 DUP(00H)
	DD	00H
	DD	01H
__ehfuncinfo$?CreateElements@Sim@@IAEXXZ DD 019930522H
	DD	05H
	DD	FLAT:__unwindtable$?CreateElements@Sim@@IAEXXZ
	DD	2 DUP(00H)
	DD	2 DUP(00H)
	DD	00H
	DD	01H
__ehfuncinfo$?CopyEvents@Sim@@IAEXXZ DD 019930522H
	DD	07H
	DD	FLAT:__unwindtable$?CopyEvents@Sim@@IAEXXZ
	DD	2 DUP(00H)
	DD	2 DUP(00H)
	DD	00H
	DD	01H
__ehfuncinfo$?CreateAsteroid@Sim@@QAEPAVAsteroid@@ABUPoint@@HNPAVSimRegion@@@Z DD 019930522H
	DD	01H
	DD	FLAT:__unwindtable$?CreateAsteroid@Sim@@QAEPAVAsteroid@@ABUPoint@@HNPAVSimRegion@@@Z
	DD	2 DUP(00H)
	DD	2 DUP(00H)
	DD	00H
	DD	01H
__ehfuncinfo$?CreateSplashDamage@Sim@@QAEXPAVShot@@@Z DD 019930522H
	DD	01H
	DD	FLAT:__unwindtable$?CreateSplashDamage@Sim@@QAEXPAVShot@@@Z
	DD	2 DUP(00H)
	DD	2 DUP(00H)
	DD	00H
	DD	01H
__ehfuncinfo$?ResolveHyperList@Sim@@QAEXXZ DD 019930522H
	DD	01H
	DD	FLAT:__unwindtable$?ResolveHyperList@Sim@@QAEXXZ
	DD	2 DUP(00H)
	DD	2 DUP(00H)
	DD	00H
	DD	01H
__ehfuncinfo$?CreateMissionElement@Sim@@IAEPAVMissionElement@@PAVElement@@@Z DD 019930522H
	DD	0bH
	DD	FLAT:__unwindtable$?CreateMissionElement@Sim@@IAEPAVMissionElement@@PAVElement@@@Z
	DD	2 DUP(00H)
	DD	2 DUP(00H)
	DD	00H
	DD	01H
__ehfuncinfo$??0SimRegion@@QAE@PAVSim@@PBDH@Z DD 019930522H
	DD	0aH
	DD	FLAT:__unwindtable$??0SimRegion@@QAE@PAVSim@@PBDH@Z
	DD	2 DUP(00H)
	DD	2 DUP(00H)
	DD	00H
	DD	01H
__ehfuncinfo$??0SimRegion@@QAE@PAVSim@@PAVOrbitalRegion@@@Z DD 019930522H
	DD	0fH
	DD	FLAT:__unwindtable$??0SimRegion@@QAE@PAVSim@@PAVOrbitalRegion@@@Z
	DD	2 DUP(00H)
	DD	2 DUP(00H)
	DD	00H
	DD	01H
__ehfuncinfo$??1SimRegion@@UAE@XZ DD 019930522H
	DD	00H
	DD	00H
	DD	2 DUP(00H)
	DD	2 DUP(00H)
	DD	00H
	DD	05H
__ehfuncinfo$?CollideShips@SimRegion@@IAEXXZ DD 019930522H
	DD	03H
	DD	FLAT:__unwindtable$?CollideShips@SimRegion@@IAEXXZ
	DD	2 DUP(00H)
	DD	2 DUP(00H)
	DD	00H
	DD	01H
__ehfuncinfo$?DestroyShip@SimRegion@@IAEXPAVShip@@@Z DD 019930522H
	DD	01H
	DD	FLAT:__unwindtable$?DestroyShip@SimRegion@@IAEXPAVShip@@@Z
	DD	2 DUP(00H)
	DD	2 DUP(00H)
	DD	00H
	DD	01H
__ehfuncinfo$?CommitMission@SimRegion@@IAEXXZ DD 019930522H
	DD	03H
	DD	FLAT:__unwindtable$?CommitMission@SimRegion@@IAEXXZ
	DD	2 DUP(00H)
	DD	2 DUP(00H)
	DD	00H
	DD	01H
	ORG $+484
__unwindtable$?CreateElements@Sim@@IAEXXZ DD 0ffffffffH
	DD	FLAT:__unwindfunclet$?CreateElements@Sim@@IAEXXZ$4
	DD	0ffffffffH
	DD	FLAT:__unwindfunclet$?CreateElements@Sim@@IAEXXZ$5
	DD	0ffffffffH
	DD	FLAT:__unwindfunclet$?CreateElements@Sim@@IAEXXZ$8
	DD	02H
	DD	FLAT:__unwindfunclet$?CreateElements@Sim@@IAEXXZ$9
	DD	03H
	DD	FLAT:__unwindfunclet$?CreateElements@Sim@@IAEXXZ$10
	ORG $+2896
__unwindtable$?CopyEvents@Sim@@IAEXXZ DD 0ffffffffH
	DD	FLAT:__unwindfunclet$?CopyEvents@Sim@@IAEXXZ$0
	DD	00H
	DD	FLAT:__unwindfunclet$?CopyEvents@Sim@@IAEXXZ$1
	DD	01H
	DD	FLAT:__unwindfunclet$?CopyEvents@Sim@@IAEXXZ$2
	DD	02H
	DD	FLAT:__unwindfunclet$?CopyEvents@Sim@@IAEXXZ$3
	DD	03H
	DD	FLAT:__unwindfunclet$?CopyEvents@Sim@@IAEXXZ$4
	DD	04H
	DD	FLAT:__unwindfunclet$?CopyEvents@Sim@@IAEXXZ$5
	DD	05H
	DD	FLAT:__unwindfunclet$?CopyEvents@Sim@@IAEXXZ$6
	ORG $+3192
__unwindtable$??0Sim@@QAE@PAVMotionController@@@Z DD 0ffffffffH
	DD	FLAT:__unwindfunclet$??0Sim@@QAE@PAVMotionController@@@Z$0
	DD	00H
	DD	FLAT:__unwindfunclet$??0Sim@@QAE@PAVMotionController@@@Z$1
	DD	01H
	DD	FLAT:__unwindfunclet$??0Sim@@QAE@PAVMotionController@@@Z$2
	DD	02H
	DD	FLAT:__unwindfunclet$??0Sim@@QAE@PAVMotionController@@@Z$3
	DD	03H
	DD	FLAT:__unwindfunclet$??0Sim@@QAE@PAVMotionController@@@Z$4
	DD	04H
	DD	FLAT:__unwindfunclet$??0Sim@@QAE@PAVMotionController@@@Z$5
	DD	05H
	DD	FLAT:__unwindfunclet$??0Sim@@QAE@PAVMotionController@@@Z$6
	DD	06H
	DD	FLAT:__unwindfunclet$??0Sim@@QAE@PAVMotionController@@@Z$7
	DD	07H
	DD	FLAT:__unwindfunclet$??0Sim@@QAE@PAVMotionController@@@Z$8
	DD	08H
	DD	FLAT:__unwindfunclet$??0Sim@@QAE@PAVMotionController@@@Z$9
__unwindtable$??0SimRegion@@QAE@PAVSim@@PBDH@Z DD 0ffffffffH
	DD	FLAT:__unwindfunclet$??0SimRegion@@QAE@PAVSim@@PBDH@Z$0
	DD	00H
	DD	FLAT:__unwindfunclet$??0SimRegion@@QAE@PAVSim@@PBDH@Z$1
	DD	01H
	DD	FLAT:__unwindfunclet$??0SimRegion@@QAE@PAVSim@@PBDH@Z$2
	DD	02H
	DD	FLAT:__unwindfunclet$??0SimRegion@@QAE@PAVSim@@PBDH@Z$3
	DD	03H
	DD	FLAT:__unwindfunclet$??0SimRegion@@QAE@PAVSim@@PBDH@Z$4
	DD	04H
	DD	FLAT:__unwindfunclet$??0SimRegion@@QAE@PAVSim@@PBDH@Z$5
	DD	05H
	DD	FLAT:__unwindfunclet$??0SimRegion@@QAE@PAVSim@@PBDH@Z$6
	DD	06H
	DD	FLAT:__unwindfunclet$??0SimRegion@@QAE@PAVSim@@PBDH@Z$7
	DD	07H
	DD	FLAT:__unwindfunclet$??0SimRegion@@QAE@PAVSim@@PBDH@Z$8
	DD	08H
	DD	FLAT:__unwindfunclet$??0SimRegion@@QAE@PAVSim@@PBDH@Z$9
	ORG $+728
__unwindtable$?CreateMissionElement@Sim@@IAEPAVMissionElement@@PAVElement@@@Z DD 0ffffffffH
	DD	FLAT:__unwindfunclet$?CreateMissionElement@Sim@@IAEPAVMissionElement@@PAVElement@@@Z$0
	DD	0ffffffffH
	DD	FLAT:__unwindfunclet$?CreateMissionElement@Sim@@IAEPAVMissionElement@@PAVElement@@@Z$1
	DD	01H
	DD	FLAT:__unwindfunclet$?CreateMissionElement@Sim@@IAEPAVMissionElement@@PAVElement@@@Z$2
	DD	0ffffffffH
	DD	FLAT:__unwindfunclet$?CreateMissionElement@Sim@@IAEPAVMissionElement@@PAVElement@@@Z$3
	DD	03H
	DD	FLAT:__unwindfunclet$?CreateMissionElement@Sim@@IAEPAVMissionElement@@PAVElement@@@Z$4
	DD	0ffffffffH
	DD	FLAT:__unwindfunclet$?CreateMissionElement@Sim@@IAEPAVMissionElement@@PAVElement@@@Z$5
	DD	0ffffffffH
	DD	FLAT:__unwindfunclet$?CreateMissionElement@Sim@@IAEPAVMissionElement@@PAVElement@@@Z$6
	DD	0ffffffffH
	DD	FLAT:__unwindfunclet$?CreateMissionElement@Sim@@IAEPAVMissionElement@@PAVElement@@@Z$7
	DD	07H
	DD	FLAT:__unwindfunclet$?CreateMissionElement@Sim@@IAEPAVMissionElement@@PAVElement@@@Z$10
	DD	0ffffffffH
	DD	FLAT:__unwindfunclet$?CreateMissionElement@Sim@@IAEPAVMissionElement@@PAVElement@@@Z$8
	DD	0ffffffffH
	DD	FLAT:__unwindfunclet$?CreateMissionElement@Sim@@IAEPAVMissionElement@@PAVElement@@@Z$9
	ORG $+2376
__unwindtable$??0SimRegion@@QAE@PAVSim@@PAVOrbitalRegion@@@Z DD 0ffffffffH
	DD	FLAT:__unwindfunclet$??0SimRegion@@QAE@PAVSim@@PAVOrbitalRegion@@@Z$0
	DD	00H
	DD	FLAT:__unwindfunclet$??0SimRegion@@QAE@PAVSim@@PAVOrbitalRegion@@@Z$1
	DD	01H
	DD	FLAT:__unwindfunclet$??0SimRegion@@QAE@PAVSim@@PAVOrbitalRegion@@@Z$2
	DD	02H
	DD	FLAT:__unwindfunclet$??0SimRegion@@QAE@PAVSim@@PAVOrbitalRegion@@@Z$3
	DD	03H
	DD	FLAT:__unwindfunclet$??0SimRegion@@QAE@PAVSim@@PAVOrbitalRegion@@@Z$4
	DD	04H
	DD	FLAT:__unwindfunclet$??0SimRegion@@QAE@PAVSim@@PAVOrbitalRegion@@@Z$5
	DD	05H
	DD	FLAT:__unwindfunclet$??0SimRegion@@QAE@PAVSim@@PAVOrbitalRegion@@@Z$6
	DD	06H
	DD	FLAT:__unwindfunclet$??0SimRegion@@QAE@PAVSim@@PAVOrbitalRegion@@@Z$7
	DD	07H
	DD	FLAT:__unwindfunclet$??0SimRegion@@QAE@PAVSim@@PAVOrbitalRegion@@@Z$8
	DD	08H
	DD	FLAT:__unwindfunclet$??0SimRegion@@QAE@PAVSim@@PAVOrbitalRegion@@@Z$9
	DD	09H
	DD	FLAT:__unwindfunclet$??0SimRegion@@QAE@PAVSim@@PAVOrbitalRegion@@@Z$10
	DD	0aH
	DD	FLAT:__unwindfunclet$??0SimRegion@@QAE@PAVSim@@PAVOrbitalRegion@@@Z$11
	DD	0bH
	DD	FLAT:__unwindfunclet$??0SimRegion@@QAE@PAVSim@@PAVOrbitalRegion@@@Z$12
	DD	0bH
	DD	FLAT:__unwindfunclet$??0SimRegion@@QAE@PAVSim@@PAVOrbitalRegion@@@Z$13
	DD	0bH
	DD	FLAT:__unwindfunclet$??0SimRegion@@QAE@PAVSim@@PAVOrbitalRegion@@@Z$14
; Function compile flags: /Ogtp
; File d:\programming\starshatter\trunk\stars45\sim.cpp
; File d:\programming\starshatter\trunk\foundationex\list.h
; File d:\programming\starshatter\trunk\stars45\sim.cpp
; File d:\programming\starshatter\trunk\foundationex\list.h
; File d:\programming\starshatter\trunk\stars45\sim.h
; File d:\programming\starshatter\trunk\stars45\sim.cpp
; File d:\programming\starshatter\trunk\stars45\sim.h
; File d:\programming\starshatter\trunk\stars45\sim.cpp
; File d:\programming\starshatter\trunk\stars45\starsystem.h
; File d:\programming\starshatter\trunk\foundationex\list.h
; File d:\programming\starshatter\trunk\stars45\starsystem.h
; File d:\programming\starshatter\trunk\foundationex\list.h
; File d:\programming\starshatter\trunk\stars45\sim.cpp
; File d:\programming\starshatter\trunk\foundationex\list.h
; File d:\programming\starshatter\trunk\stars45\sim.cpp
; File d:\programming\starshatter\trunk\foundationex\list.h
; File d:\programming\starshatter\trunk\stars45\sim.cpp
; File d:\programming\starshatter\trunk\foundationex\list.h
; File d:\programming\starshatter\trunk\stars45\sim.cpp
_TEXT	SEGMENT
_iter$1 = -16						; size = 8
_rgn$ = -8						; size = 8
_body$ = 8						; size = 4
?FindNearestSpaceRegion@Sim@@QAEPAVSimRegion@@PAVOrbital@@@Z PROC ; Sim::FindNearestSpaceRegion
; _this$ = ecx

; 1443 : {

  00000	55		 push	 ebp
  00001	8b ec		 mov	 ebp, esp
  00003	83 e4 f8	 and	 esp, -8			; fffffff8H
  00006	83 ec 14	 sub	 esp, 20			; 00000014H
  00009	53		 push	 ebx
  0000a	56		 push	 esi

; 1444 :     SimRegion*  result   = 0;

  0000b	33 f6		 xor	 esi, esi
  0000d	57		 push	 edi

; 1445 : 
; 1446 :     if (!body)

  0000e	39 75 08	 cmp	 DWORD PTR _body$[ebp], esi
  00011	75 0b		 jne	 SHORT $LN6@FindNeares

; 1447 :     return result;

  00013	33 c0		 xor	 eax, eax

; 1457 :                     result = rgn.value();
; 1458 :                 }
; 1459 :             }
; 1460 :         }
; 1461 :     }
; 1462 :     
; 1463 :     return result;
; 1464 : }

  00015	5f		 pop	 edi
  00016	5e		 pop	 esi
  00017	5b		 pop	 ebx
  00018	8b e5		 mov	 esp, ebp
  0001a	5d		 pop	 ebp
  0001b	c2 04 00	 ret	 4
$LN6@FindNeares:

; 1448 : 
; 1449 :     ListIter<SimRegion> rgn = regions;

  0001e	8d 41 58	 lea	 eax, DWORD PTR [ecx+88]
; File d:\programming\starshatter\trunk\foundationex\list.h

; 106  :    ListIter(List<T>& l)             : list(&l),     step(-1)      { }

  00021	c7 44 24 1c ff
	ff ff ff	 mov	 DWORD PTR _rgn$[esp+36], -1

; 108  :    int operator++() { return next() != 0; }

  00029	8d 4c 24 18	 lea	 ecx, DWORD PTR _rgn$[esp+32]

; 106  :    ListIter(List<T>& l)             : list(&l),     step(-1)      { }

  0002d	89 44 24 18	 mov	 DWORD PTR _rgn$[esp+32], eax

; 108  :    int operator++() { return next() != 0; }

  00031	e8 00 00 00 00	 call	 ?next@?$ListIter@VSimRegion@@@@QAEPAVSimRegion@@XZ ; ListIter<SimRegion>::next
  00036	85 c0		 test	 eax, eax
; File d:\programming\starshatter\trunk\stars45\sim.cpp

; 1450 :     while (++rgn && !result) {

  00038	74 6e		 je	 SHORT $LN3@FindNeares
  0003a	66 0f 1f 44 00
	00		 npad	 6
$LL2@FindNeares:
  00040	85 f6		 test	 esi, esi
  00042	75 64		 jne	 SHORT $LN3@FindNeares
; File d:\programming\starshatter\trunk\foundationex\list.h

; 110  :    T*  operator->() { return value();     }

  00044	8d 4c 24 18	 lea	 ecx, DWORD PTR _rgn$[esp+32]
  00048	e8 00 00 00 00	 call	 ?value@?$ListIter@VSimRegion@@@@QAEPAVSimRegion@@XZ ; ListIter<SimRegion>::value
  0004d	8b f8		 mov	 edi, eax
; File d:\programming\starshatter\trunk\stars45\sim.h

; 268  :     bool                 IsOrbital()  const { return type == REAL_SPACE; }

  0004f	39 77 14	 cmp	 DWORD PTR [edi+20], esi
; File d:\programming\starshatter\trunk\stars45\sim.cpp

; 1451 :         if (rgn->IsOrbital()) {

  00052	75 47		 jne	 SHORT $LN5@FindNeares
; File d:\programming\starshatter\trunk\stars45\sim.h

; 264  :     OrbitalRegion*       GetOrbitalRegion() { return orbital_region; }

  00054	8b 5f 1c	 mov	 ebx, DWORD PTR [edi+28]
; File d:\programming\starshatter\trunk\stars45\sim.cpp

; 1453 :             if (orgn) {

  00057	85 db		 test	 ebx, ebx
  00059	74 40		 je	 SHORT $LN5@FindNeares
; File d:\programming\starshatter\trunk\stars45\starsystem.h

; 244  :     ListIter<OrbitalRegion> Regions()      { return regions;    }

  0005b	8b 45 08	 mov	 eax, DWORD PTR _body$[ebp]
; File d:\programming\starshatter\trunk\foundationex\list.h

; 108  :    int operator++() { return next() != 0; }

  0005e	8d 4c 24 10	 lea	 ecx, DWORD PTR _iter$1[esp+32]
; File d:\programming\starshatter\trunk\stars45\starsystem.h

; 244  :     ListIter<OrbitalRegion> Regions()      { return regions;    }

  00062	05 f0 00 00 00	 add	 eax, 240		; 000000f0H
; File d:\programming\starshatter\trunk\foundationex\list.h

; 106  :    ListIter(List<T>& l)             : list(&l),     step(-1)      { }

  00067	c7 44 24 14 ff
	ff ff ff	 mov	 DWORD PTR _iter$1[esp+36], -1
  0006f	89 44 24 10	 mov	 DWORD PTR _iter$1[esp+32], eax

; 108  :    int operator++() { return next() != 0; }

  00073	e8 00 00 00 00	 call	 ?next@?$ListIter@VOrbitalRegion@@@@QAEPAVOrbitalRegion@@XZ ; ListIter<OrbitalRegion>::next
  00078	85 c0		 test	 eax, eax
; File d:\programming\starshatter\trunk\stars45\sim.cpp

; 1455 :                 while (++iter) {

  0007a	74 1f		 je	 SHORT $LN5@FindNeares
  0007c	0f 1f 40 00	 npad	 4
$LL4@FindNeares:

; 1456 :                     if (iter.value() == orgn)

  00080	8d 4c 24 10	 lea	 ecx, DWORD PTR _iter$1[esp+32]
  00084	e8 00 00 00 00	 call	 ?value@?$ListIter@VOrbitalRegion@@@@QAEPAVOrbitalRegion@@XZ ; ListIter<OrbitalRegion>::value
  00089	3b c3		 cmp	 eax, ebx
; File d:\programming\starshatter\trunk\foundationex\list.h

; 108  :    int operator++() { return next() != 0; }

  0008b	8d 4c 24 10	 lea	 ecx, DWORD PTR _iter$1[esp+32]
; File d:\programming\starshatter\trunk\stars45\sim.cpp

; 1456 :                     if (iter.value() == orgn)

  0008f	0f 44 f7	 cmove	 esi, edi
; File d:\programming\starshatter\trunk\foundationex\list.h

; 108  :    int operator++() { return next() != 0; }

  00092	e8 00 00 00 00	 call	 ?next@?$ListIter@VOrbitalRegion@@@@QAEPAVOrbitalRegion@@XZ ; ListIter<OrbitalRegion>::next
  00097	85 c0		 test	 eax, eax
; File d:\programming\starshatter\trunk\stars45\sim.cpp

; 1455 :                 while (++iter) {

  00099	75 e5		 jne	 SHORT $LL4@FindNeares
$LN5@FindNeares:
; File d:\programming\starshatter\trunk\foundationex\list.h

; 108  :    int operator++() { return next() != 0; }

  0009b	8d 4c 24 18	 lea	 ecx, DWORD PTR _rgn$[esp+32]
  0009f	e8 00 00 00 00	 call	 ?next@?$ListIter@VSimRegion@@@@QAEPAVSimRegion@@XZ ; ListIter<SimRegion>::next
  000a4	85 c0		 test	 eax, eax
; File d:\programming\starshatter\trunk\stars45\sim.cpp

; 1450 :     while (++rgn && !result) {

  000a6	75 98		 jne	 SHORT $LL2@FindNeares
$LN3@FindNeares:

; 1457 :                     result = rgn.value();
; 1458 :                 }
; 1459 :             }
; 1460 :         }
; 1461 :     }
; 1462 :     
; 1463 :     return result;
; 1464 : }

  000a8	5f		 pop	 edi
  000a9	8b c6		 mov	 eax, esi
  000ab	5e		 pop	 esi
  000ac	5b		 pop	 ebx
  000ad	8b e5		 mov	 esp, ebp
  000af	5d		 pop	 ebp
  000b0	c2 04 00	 ret	 4
?FindNearestSpaceRegion@Sim@@QAEPAVSimRegion@@PAVOrbital@@@Z ENDP ; Sim::FindNearestSpaceRegion
_TEXT	ENDS
; Function compile flags: /Ogtp
; File d:\programming\starshatter\trunk\stars45\sim.cpp
; File d:\programming\starshatter\trunk\stars45\sim.h
; File d:\programming\starshatter\trunk\stars45\sim.cpp
; File d:\programming\starshatter\trunk\stars45\sim.h
; File d:\programming\starshatter\trunk\stars45\sim.cpp
_TEXT	SEGMENT
_rgn$ = 8						; size = 4
?ActivateRegion@Sim@@QAE_NPAVSimRegion@@@Z PROC		; Sim::ActivateRegion
; _this$ = ecx

; 1470 : {

  00000	55		 push	 ebp
  00001	8b ec		 mov	 ebp, esp
  00003	56		 push	 esi

; 1471 :     if (rgn && active_region != rgn && regions.contains(rgn)) {

  00004	8b 75 08	 mov	 esi, DWORD PTR _rgn$[ebp]
  00007	57		 push	 edi
  00008	8b f9		 mov	 edi, ecx
  0000a	85 f6		 test	 esi, esi
  0000c	0f 84 8d 00 00
	00		 je	 $LN2@ActivateRe
  00012	39 77 04	 cmp	 DWORD PTR [edi+4], esi
  00015	0f 84 84 00 00
	00		 je	 $LN2@ActivateRe
  0001b	56		 push	 esi
  0001c	8d 4f 58	 lea	 ecx, DWORD PTR [edi+88]
  0001f	e8 00 00 00 00	 call	 ?contains@?$List@VSimRegion@@@@QBE_NPBVSimRegion@@@Z ; List<SimRegion>::contains
  00024	84 c0		 test	 al, al
  00026	74 77		 je	 SHORT $LN2@ActivateRe

; 1472 :         if (active_region)

  00028	8b 4f 04	 mov	 ecx, DWORD PTR [edi+4]
  0002b	85 c9		 test	 ecx, ecx
  0002d	74 05		 je	 SHORT $LN10@ActivateRe

; 1473 :         active_region->Deactivate();

  0002f	8b 01		 mov	 eax, DWORD PTR [ecx]
  00031	ff 50 08	 call	 DWORD PTR [eax+8]
$LN10@ActivateRe:

; 1474 : 
; 1475 :         if (!active_region || active_region->System() != rgn->System()) {

  00034	8b 4f 04	 mov	 ecx, DWORD PTR [edi+4]
  00037	85 c9		 test	 ecx, ecx
  00039	74 13		 je	 SHORT $LN12@ActivateRe
  0003b	8b 41 18	 mov	 eax, DWORD PTR [ecx+24]
  0003e	3b 46 18	 cmp	 eax, DWORD PTR [esi+24]
  00041	74 17		 je	 SHORT $LN14@ActivateRe

; 1476 :             if (active_region)

  00043	85 c9		 test	 ecx, ecx
  00045	74 07		 je	 SHORT $LN12@ActivateRe
; File d:\programming\starshatter\trunk\stars45\sim.h

; 291  :     StarSystem*          System()     { return star_system;     }

  00047	8b c8		 mov	 ecx, eax
; File d:\programming\starshatter\trunk\stars45\sim.cpp

; 1477 :             active_region->System()->Deactivate();

  00049	8b 01		 mov	 eax, DWORD PTR [ecx]
  0004b	ff 50 14	 call	 DWORD PTR [eax+20]
$LN12@ActivateRe:
; File d:\programming\starshatter\trunk\stars45\sim.h

; 291  :     StarSystem*          System()     { return star_system;     }

  0004e	8b 4e 18	 mov	 ecx, DWORD PTR [esi+24]
; File d:\programming\starshatter\trunk\stars45\sim.cpp

; 1478 :             rgn->System()->Activate(scene);

  00051	8d 47 0c	 lea	 eax, DWORD PTR [edi+12]
  00054	50		 push	 eax
  00055	8b 11		 mov	 edx, DWORD PTR [ecx]
  00057	ff 52 10	 call	 DWORD PTR [edx+16]
$LN14@ActivateRe:

; 1479 :         }
; 1480 : 
; 1481 :         active_region = rgn;

  0005a	89 77 04	 mov	 DWORD PTR [edi+4], esi

; 1482 :         star_system   = active_region->System();

  0005d	8b 4e 18	 mov	 ecx, DWORD PTR [esi+24]
  00060	89 4f 08	 mov	 DWORD PTR [edi+8], ecx

; 1483 : 
; 1484 :         if (star_system) {

  00063	85 c9		 test	 ecx, ecx
  00065	74 18		 je	 SHORT $LN7@ActivateRe

; 1485 :             star_system->SetActiveRegion(active_region->orbital_region);

  00067	ff 76 1c	 push	 DWORD PTR [esi+28]
  0006a	e8 00 00 00 00	 call	 ?SetActiveRegion@StarSystem@@QAEXPAVOrbitalRegion@@@Z ; StarSystem::SetActiveRegion

; 1489 :         }
; 1490 : 
; 1491 :         active_region->Activate();

  0006f	8b 4f 04	 mov	 ecx, DWORD PTR [edi+4]
  00072	8b 01		 mov	 eax, DWORD PTR [ecx]
  00074	ff 50 04	 call	 DWORD PTR [eax+4]

; 1492 :         return true;

  00077	b0 01		 mov	 al, 1

; 1493 :     }
; 1494 : 
; 1495 :     return false;
; 1496 : }

  00079	5f		 pop	 edi
  0007a	5e		 pop	 esi
  0007b	5d		 pop	 ebp
  0007c	c2 04 00	 ret	 4
$LN7@ActivateRe:

; 1486 :         }
; 1487 :         else {
; 1488 :             ::Print("WARNING: Sim::ActivateRegion() No star system found for rgn '%s'", rgn->Name());

  0007f	ff 76 0c	 push	 DWORD PTR [esi+12]
  00082	68 00 00 00 00	 push	 OFFSET ??_C@_0EB@OCIFAMJD@WARNING?3?5Sim?3?3ActivateRegion?$CI?$CJ?5N@
  00087	e8 00 00 00 00	 call	 ?Print@@YAXPBDZZ	; Print

; 1489 :         }
; 1490 : 
; 1491 :         active_region->Activate();

  0008c	8b 4f 04	 mov	 ecx, DWORD PTR [edi+4]
  0008f	83 c4 08	 add	 esp, 8
  00092	8b 01		 mov	 eax, DWORD PTR [ecx]
  00094	ff 50 04	 call	 DWORD PTR [eax+4]

; 1492 :         return true;

  00097	b0 01		 mov	 al, 1

; 1493 :     }
; 1494 : 
; 1495 :     return false;
; 1496 : }

  00099	5f		 pop	 edi
  0009a	5e		 pop	 esi
  0009b	5d		 pop	 ebp
  0009c	c2 04 00	 ret	 4
$LN2@ActivateRe:
  0009f	5f		 pop	 edi
  000a0	32 c0		 xor	 al, al
  000a2	5e		 pop	 esi
  000a3	5d		 pop	 ebp
  000a4	c2 04 00	 ret	 4
?ActivateRegion@Sim@@QAE_NPAVSimRegion@@@Z ENDP		; Sim::ActivateRegion
_TEXT	ENDS
; Function compile flags: /Ogtp
; File d:\programming\starshatter\trunk\stars45\sim.cpp
_TEXT	SEGMENT
_IFF$ = 8						; size = 4
?FindAvailCallsign@Sim@@QAEPBDH@Z PROC			; Sim::FindAvailCallsign
; _this$ = ecx

; 945  : {

  00000	55		 push	 ebp
  00001	8b ec		 mov	 ebp, esp
  00003	83 e4 f8	 and	 esp, -8			; fffffff8H
  00006	51		 push	 ecx
  00007	53		 push	 ebx
  00008	56		 push	 esi
  00009	57		 push	 edi
  0000a	8b d9		 mov	 ebx, ecx

; 946  :     const char* call = "Unidentified";
; 947  : 
; 948  :     for (int i = 0; i < 32; i++) {

  0000c	33 f6		 xor	 esi, esi
  0000e	66 90		 npad	 2
$LL4@FindAvailC:

; 949  :         call = Callsign::GetCallsign(IFF);

  00010	8b 4d 08	 mov	 ecx, DWORD PTR _IFF$[ebp]
  00013	e8 00 00 00 00	 call	 ?GetCallsign@Callsign@@SAPBDH@Z ; Callsign::GetCallsign
  00018	8b f8		 mov	 edi, eax

; 950  : 
; 951  :         if (!FindElement(call))

  0001a	8b cb		 mov	 ecx, ebx
  0001c	57		 push	 edi
  0001d	e8 00 00 00 00	 call	 ?FindElement@Sim@@QAEPAVElement@@PBD@Z ; Sim::FindElement
  00022	85 c0		 test	 eax, eax
  00024	74 06		 je	 SHORT $LN12@FindAvailC

; 946  :     const char* call = "Unidentified";
; 947  : 
; 948  :     for (int i = 0; i < 32; i++) {

  00026	46		 inc	 esi
  00027	83 fe 20	 cmp	 esi, 32			; 00000020H
  0002a	7c e4		 jl	 SHORT $LL4@FindAvailC
$LN12@FindAvailC:

; 952  :         break;
; 953  :     }
; 954  : 
; 955  :     return call;

  0002c	8b c7		 mov	 eax, edi

; 956  : }

  0002e	5f		 pop	 edi
  0002f	5e		 pop	 esi
  00030	5b		 pop	 ebx
  00031	8b e5		 mov	 esp, ebp
  00033	5d		 pop	 ebp
  00034	c2 04 00	 ret	 4
?FindAvailCallsign@Sim@@QAEPBDH@Z ENDP			; Sim::FindAvailCallsign
_TEXT	ENDS
; Function compile flags: /Ogtp
; File d:\programming\starshatter\trunk\stars45\sim.cpp
; File d:\programming\starshatter\trunk\foundationex\memdebug.h
; File d:\programming\starshatter\trunk\stars45\sim.cpp
_TEXT	SEGMENT
$T2 = -16						; size = 4
__$EHRec$ = -12						; size = 12
_callsign$ = 8						; size = 4
_IFF$ = 12						; size = 4
_type$ = 16						; size = 4
?CreateElement@Sim@@QAEPAVElement@@PBDHH@Z PROC		; Sim::CreateElement
; _this$ = ecx

; 960  : {

  00000	55		 push	 ebp
  00001	8b ec		 mov	 ebp, esp
  00003	6a ff		 push	 -1
  00005	68 00 00 00 00	 push	 __ehhandler$?CreateElement@Sim@@QAEPAVElement@@PBDHH@Z
  0000a	64 a1 00 00 00
	00		 mov	 eax, DWORD PTR fs:0
  00010	50		 push	 eax
  00011	51		 push	 ecx
  00012	56		 push	 esi
  00013	57		 push	 edi
  00014	a1 00 00 00 00	 mov	 eax, DWORD PTR ___security_cookie
  00019	33 c5		 xor	 eax, ebp
  0001b	50		 push	 eax
  0001c	8d 45 f4	 lea	 eax, DWORD PTR __$EHRec$[ebp]
  0001f	64 a3 00 00 00
	00		 mov	 DWORD PTR fs:0, eax
  00025	8b f9		 mov	 edi, ecx
; File d:\programming\starshatter\trunk\foundationex\memdebug.h

; 92   : inline void* __cdecl operator new(unsigned int s, const char*, int) { return ::operator new(s);    }

  00027	68 e8 00 00 00	 push	 232			; 000000e8H
  0002c	e8 00 00 00 00	 call	 ??2@YAPAXI@Z		; operator new
  00031	83 c4 04	 add	 esp, 4
; File d:\programming\starshatter\trunk\stars45\sim.cpp

; 961  :     Element* elem = new(__FILE__,__LINE__) Element(callsign, IFF, type);

  00034	89 45 f0	 mov	 DWORD PTR $T2[ebp], eax
  00037	c7 45 fc 00 00
	00 00		 mov	 DWORD PTR __$EHRec$[ebp+8], 0
  0003e	85 c0		 test	 eax, eax
  00040	74 14		 je	 SHORT $LN3@CreateElem
  00042	ff 75 10	 push	 DWORD PTR _type$[ebp]
  00045	8b c8		 mov	 ecx, eax
  00047	ff 75 0c	 push	 DWORD PTR _IFF$[ebp]
  0004a	ff 75 08	 push	 DWORD PTR _callsign$[ebp]
  0004d	e8 00 00 00 00	 call	 ??0Element@@QAE@PBDHH@Z	; Element::Element
  00052	8b f0		 mov	 esi, eax
  00054	eb 02		 jmp	 SHORT $LN4@CreateElem
$LN3@CreateElem:
  00056	33 f6		 xor	 esi, esi
$LN4@CreateElem:

; 962  :     elements.append(elem);

  00058	56		 push	 esi
  00059	8d 8f 88 00 00
	00		 lea	 ecx, DWORD PTR [edi+136]
  0005f	c7 45 fc ff ff
	ff ff		 mov	 DWORD PTR __$EHRec$[ebp+8], -1
  00066	e8 00 00 00 00	 call	 ?append@?$List@VElement@@@@QAEXPBVElement@@@Z ; List<Element>::append

; 963  :     return elem;

  0006b	8b c6		 mov	 eax, esi

; 964  : }

  0006d	8b 4d f4	 mov	 ecx, DWORD PTR __$EHRec$[ebp]
  00070	64 89 0d 00 00
	00 00		 mov	 DWORD PTR fs:0, ecx
  00077	59		 pop	 ecx
  00078	5f		 pop	 edi
  00079	5e		 pop	 esi
  0007a	8b e5		 mov	 esp, ebp
  0007c	5d		 pop	 ebp
  0007d	c2 0c 00	 ret	 12			; 0000000cH
_TEXT	ENDS
text$x	SEGMENT
__unwindfunclet$?CreateElement@Sim@@QAEPAVElement@@PBDHH@Z$0:
  00000	68 c1 03 00 00	 push	 961			; 000003c1H
  00005	68 00 00 00 00	 push	 OFFSET ??_C@_07MHJMBJCP@Sim?4cpp?$AA@
  0000a	8b 45 f0	 mov	 eax, DWORD PTR $T2[ebp]
  0000d	50		 push	 eax
  0000e	e8 00 00 00 00	 call	 ??3@YAXPAXPBDH@Z	; operator delete
  00013	83 c4 0c	 add	 esp, 12			; 0000000cH
  00016	c3		 ret	 0
__ehhandler$?CreateElement@Sim@@QAEPAVElement@@PBDHH@Z:
  00017	8b 54 24 08	 mov	 edx, DWORD PTR [esp+8]
  0001b	8d 42 0c	 lea	 eax, DWORD PTR [edx+12]
  0001e	8b 4a f0	 mov	 ecx, DWORD PTR [edx-16]
  00021	33 c8		 xor	 ecx, eax
  00023	e8 00 00 00 00	 call	 @__security_check_cookie@4
  00028	b8 00 00 00 00	 mov	 eax, OFFSET __ehfuncinfo$?CreateElement@Sim@@QAEPAVElement@@PBDHH@Z
  0002d	e9 00 00 00 00	 jmp	 ___CxxFrameHandler3
text$x	ENDS
?CreateElement@Sim@@QAEPAVElement@@PBDHH@Z ENDP		; Sim::CreateElement
; Function compile flags: /Ogtp
; File d:\programming\starshatter\trunk\stars45\sim.cpp
_TEXT	SEGMENT
_elem$ = 8						; size = 4
_assigned$ = 12						; size = 4
?GetAssignedElements@Sim@@QAEHPAVElement@@AAV?$List@VElement@@@@@Z PROC ; Sim::GetAssignedElements
; _this$ = ecx

; 995  : {

  00000	55		 push	 ebp
  00001	8b ec		 mov	 ebp, esp
  00003	53		 push	 ebx
  00004	57		 push	 edi

; 996  :     assigned.clear();

  00005	8b 7d 0c	 mov	 edi, DWORD PTR _assigned$[ebp]
  00008	8b d9		 mov	 ebx, ecx
  0000a	8b cf		 mov	 ecx, edi
  0000c	e8 00 00 00 00	 call	 ?clear@?$List@VElement@@@@QAEXXZ ; List<Element>::clear

; 997  : 
; 998  :     if (elem) {

  00011	83 7d 08 00	 cmp	 DWORD PTR _elem$[ebp], 0
  00015	74 44		 je	 SHORT $LN19@GetAssigne

; 999  :         for (int i = 0; i < elements.size(); i++) {

  00017	56		 push	 esi
  00018	33 f6		 xor	 esi, esi
  0001a	39 b3 88 00 00
	00		 cmp	 DWORD PTR [ebx+136], esi
  00020	7e 30		 jle	 SHORT $LN18@GetAssigne
$LL4@GetAssigne:

; 1000 :             Element* e = elements.at(i);

  00022	56		 push	 esi
  00023	8d 8b 88 00 00
	00		 lea	 ecx, DWORD PTR [ebx+136]
  00029	e8 00 00 00 00	 call	 ?at@?$List@VElement@@@@QAEAAPAVElement@@H@Z ; List<Element>::at
  0002e	8b 08		 mov	 ecx, DWORD PTR [eax]

; 1001 :             if (!e->IsSquadron() && e->GetAssignment() == elem)

  00030	e8 00 00 00 00	 call	 ?IsSquadron@Element@@QBE_NXZ ; Element::IsSquadron
  00035	84 c0		 test	 al, al
  00037	75 10		 jne	 SHORT $LN2@GetAssigne
  00039	8b 45 08	 mov	 eax, DWORD PTR _elem$[ebp]
  0003c	39 41 78	 cmp	 DWORD PTR [ecx+120], eax
  0003f	75 08		 jne	 SHORT $LN2@GetAssigne

; 1002 :             assigned.append(e);

  00041	51		 push	 ecx
  00042	8b cf		 mov	 ecx, edi
  00044	e8 00 00 00 00	 call	 ?append@?$List@VElement@@@@QAEXPBVElement@@@Z ; List<Element>::append
$LN2@GetAssigne:

; 999  :         for (int i = 0; i < elements.size(); i++) {

  00049	46		 inc	 esi
  0004a	3b b3 88 00 00
	00		 cmp	 esi, DWORD PTR [ebx+136]
  00050	7c d0		 jl	 SHORT $LL4@GetAssigne
$LN18@GetAssigne:

; 1003 :         }
; 1004 :     }
; 1005 : 
; 1006 :     return assigned.size();

  00052	8b 07		 mov	 eax, DWORD PTR [edi]
  00054	5e		 pop	 esi
  00055	5f		 pop	 edi
  00056	5b		 pop	 ebx

; 1007 : }

  00057	5d		 pop	 ebp
  00058	c2 08 00	 ret	 8
$LN19@GetAssigne:

; 1003 :         }
; 1004 :     }
; 1005 : 
; 1006 :     return assigned.size();

  0005b	8b 07		 mov	 eax, DWORD PTR [edi]
  0005d	5f		 pop	 edi
  0005e	5b		 pop	 ebx

; 1007 : }

  0005f	5d		 pop	 ebp
  00060	c2 08 00	 ret	 8
?GetAssignedElements@Sim@@QAEHPAVElement@@AAV?$List@VElement@@@@@Z ENDP ; Sim::GetAssignedElements
_TEXT	ENDS
; Function compile flags: /Ogtp
; File d:\programming\starshatter\trunk\stars45\sim.cpp
; File d:\programming\starshatter\trunk\foundationex\list.h
; File d:\programming\starshatter\trunk\stars45\sim.cpp
; File d:\programming\starshatter\trunk\stars45\simevent.h
; File d:\programming\starshatter\trunk\stars45\sim.cpp
; File d:\programming\starshatter\trunk\stars45\combatgroup.h
; File d:\programming\starshatter\trunk\stars45\sim.cpp
; File d:\programming\starshatter\trunk\stars45\combatant.h
; File d:\programming\starshatter\trunk\stars45\sim.cpp
; File d:\programming\starshatter\trunk\stars45\combatgroup.h
; File d:\programming\starshatter\trunk\stars45\sim.cpp
; File d:\programming\starshatter\trunk\stars45\combatgroup.h
; File d:\programming\starshatter\trunk\stars45\sim.cpp
_TEXT	SEGMENT
_tk1$1$ = -20						; size = 4
_td$1$ = -16						; size = 4
_tc$1$ = -12						; size = 4
_tk2$1$ = -8						; size = 4
_this$1$ = -4						; size = 4
?CommitMission@Sim@@QAEXXZ PROC				; Sim::CommitMission
; _this$ = ecx

; 184  : {

  00000	55		 push	 ebp
  00001	8b ec		 mov	 ebp, esp
  00003	83 ec 14	 sub	 esp, 20			; 00000014H
  00006	53		 push	 ebx
  00007	56		 push	 esi
  00008	57		 push	 edi

; 185  :     for (int i = 0; i < regions.size(); i++)

  00009	33 f6		 xor	 esi, esi
  0000b	89 4d fc	 mov	 DWORD PTR _this$1$[ebp], ecx
  0000e	39 71 58	 cmp	 DWORD PTR [ecx+88], esi
; File d:\programming\starshatter\trunk\foundationex\list.h

; 74   :    int      size()    const      { return items;  }

  00011	8d 79 58	 lea	 edi, DWORD PTR [ecx+88]
; File d:\programming\starshatter\trunk\stars45\sim.cpp

; 185  :     for (int i = 0; i < regions.size(); i++)

  00014	7e 17		 jle	 SHORT $LN3@CommitMiss
$LL4@CommitMiss:

; 186  :     regions[i]->CommitMission();

  00016	56		 push	 esi
  00017	8b cf		 mov	 ecx, edi
  00019	e8 00 00 00 00	 call	 ??A?$List@VSimRegion@@@@QAEAAPAVSimRegion@@H@Z ; List<SimRegion>::operator[]
  0001e	8b 08		 mov	 ecx, DWORD PTR [eax]
  00020	e8 00 00 00 00	 call	 ?CommitMission@SimRegion@@IAEXXZ ; SimRegion::CommitMission
  00025	46		 inc	 esi
  00026	3b 37		 cmp	 esi, DWORD PTR [edi]
  00028	7c ec		 jl	 SHORT $LL4@CommitMiss
  0002a	8b 4d fc	 mov	 ecx, DWORD PTR _this$1$[ebp]
$LN3@CommitMiss:

; 187  : 
; 188  :     if (ShipStats::NumStats() > 0) {

  0002d	e8 00 00 00 00	 call	 ?NumStats@ShipStats@@SAHXZ ; ShipStats::NumStats
  00032	85 c0		 test	 eax, eax
  00034	0f 8e 57 01 00
	00		 jle	 $LN8@CommitMiss

; 189  :         Print("\n\nFINAL SCORE '%s'\n", (const char*) mission->Name());

  0003a	8b 81 c0 00 00
	00		 mov	 eax, DWORD PTR [ecx+192]
  00040	ff b0 94 00 00
	00		 push	 DWORD PTR [eax+148]
  00046	68 00 00 00 00	 push	 OFFSET ??_C@_0BE@MDJAGKKE@?6?6FINAL?5SCORE?5?8?$CFs?8?6?$AA@
  0004b	e8 00 00 00 00	 call	 ?Print@@YAXPBDZZ	; Print

; 190  :         Print("Name              Kill1  Kill2  Died   Colls  Points  Cmd Pts\n");

  00050	68 00 00 00 00	 push	 OFFSET ??_C@_0DP@BCONEFGH@Name?5?5?5?5?5?5?5?5?5?5?5?5?5?5Kill1?5?5Kill2?5?5@
  00055	e8 00 00 00 00	 call	 ?Print@@YAXPBDZZ	; Print
  0005a	83 c4 0c	 add	 esp, 12			; 0000000cH

; 191  :         Print("----------------  -----  -----  -----  -----  ------  ------\n");

  0005d	68 00 00 00 00	 push	 OFFSET ??_C@_0DO@BFFMOOLB@?9?9?9?9?9?9?9?9?9?9?9?9?9?9?9?9?5?5?9?9?9?9?9?5?5?9?9?9?9?9?5?5@
  00062	e8 00 00 00 00	 call	 ?Print@@YAXPBDZZ	; Print
  00067	83 c4 04	 add	 esp, 4

; 192  : 
; 193  :         int tk1 = 0;

  0006a	33 db		 xor	 ebx, ebx

; 194  :         int tk2 = 0;

  0006c	33 f6		 xor	 esi, esi

; 195  :         int td  = 0;

  0006e	89 5d f0	 mov	 DWORD PTR _td$1$[ebp], ebx
  00071	89 75 f8	 mov	 DWORD PTR _tk2$1$[ebp], esi

; 196  :         int tc  = 0;
; 197  : 
; 198  :         for (int i = 0; i < ShipStats::NumStats(); i++) {

  00074	33 ff		 xor	 edi, edi
  00076	89 5d f4	 mov	 DWORD PTR _tc$1$[ebp], ebx
  00079	e8 00 00 00 00	 call	 ?NumStats@ShipStats@@SAHXZ ; ShipStats::NumStats
  0007e	85 c0		 test	 eax, eax
  00080	0f 8e e4 00 00
	00		 jle	 $LN6@CommitMiss
$LL7@CommitMiss:

; 199  :             ShipStats* s = ShipStats::GetStats(i);

  00086	8b cf		 mov	 ecx, edi
  00088	e8 00 00 00 00	 call	 ?GetStats@ShipStats@@SAPAV1@H@Z ; ShipStats::GetStats
  0008d	8b f0		 mov	 esi, eax

; 200  :             s->Summarize();

  0008f	8b ce		 mov	 ecx, esi
  00091	e8 00 00 00 00	 call	 ?Summarize@ShipStats@@QAEXXZ ; ShipStats::Summarize

; 201  : 
; 202  :             Print("%-16s  %5d  %5d  %5d  %5d  %6d  %6d\n",

  00096	ff 76 5c	 push	 DWORD PTR [esi+92]
  00099	ff 76 58	 push	 DWORD PTR [esi+88]
  0009c	ff 76 44	 push	 DWORD PTR [esi+68]
  0009f	ff 76 40	 push	 DWORD PTR [esi+64]
  000a2	ff 76 3c	 push	 DWORD PTR [esi+60]
  000a5	ff 76 38	 push	 DWORD PTR [esi+56]
  000a8	ff 36		 push	 DWORD PTR [esi]
  000aa	68 00 00 00 00	 push	 OFFSET ??_C@_0CF@KFDPBJH@?$CF?916s?5?5?$CF5d?5?5?$CF5d?5?5?$CF5d?5?5?$CF5d?5?5?$CF6d?5?5@
  000af	e8 00 00 00 00	 call	 ?Print@@YAXPBDZZ	; Print

; 212  :             tk2 += s->GetMissileKills();

  000b4	8b 45 f8	 mov	 eax, DWORD PTR _tk2$1$[ebp]
  000b7	83 c4 20	 add	 esp, 32			; 00000020H
  000ba	03 46 3c	 add	 eax, DWORD PTR [esi+60]
  000bd	03 5e 38	 add	 ebx, DWORD PTR [esi+56]
; File d:\programming\starshatter\trunk\stars45\simevent.h

; 116  :     CombatGroup*   GetCombatGroup()  const { return combat_group;  }

  000c0	8b 4e 20	 mov	 ecx, DWORD PTR [esi+32]
; File d:\programming\starshatter\trunk\stars45\sim.cpp

; 212  :             tk2 += s->GetMissileKills();

  000c3	89 45 f8	 mov	 DWORD PTR _tk2$1$[ebp], eax

; 213  :             td  += s->GetDeaths();

  000c6	8b 45 f0	 mov	 eax, DWORD PTR _td$1$[ebp]
  000c9	03 46 40	 add	 eax, DWORD PTR [esi+64]
  000cc	89 45 f0	 mov	 DWORD PTR _td$1$[ebp], eax

; 214  :             tc  += s->GetColls();

  000cf	8b 45 f4	 mov	 eax, DWORD PTR _tc$1$[ebp]
  000d2	03 46 44	 add	 eax, DWORD PTR [esi+68]
  000d5	89 5d ec	 mov	 DWORD PTR _tk1$1$[ebp], ebx
  000d8	89 45 f4	 mov	 DWORD PTR _tc$1$[ebp], eax

; 215  : 
; 216  :             CombatGroup* group = s->GetCombatGroup();
; 217  : 
; 218  :             if (group) {

  000db	85 c9		 test	 ecx, ecx
  000dd	74 28		 je	 SHORT $LN9@CommitMiss
; File d:\programming\starshatter\trunk\stars45\combatgroup.h

; 140  :     Combatant*           GetCombatant()          { return combatant;  }

  000df	8b 51 44	 mov	 edx, DWORD PTR [ecx+68]
; File d:\programming\starshatter\trunk\stars45\sim.cpp

; 221  :                 if (c)

  000e2	85 d2		 test	 edx, edx
  000e4	74 06		 je	 SHORT $LN10@CommitMiss
; File d:\programming\starshatter\trunk\stars45\combatant.h

; 78   :     void                    AddScore(int points)   { score += points; }

  000e6	8b 46 58	 mov	 eax, DWORD PTR [esi+88]
  000e9	01 42 0c	 add	 DWORD PTR [edx+12], eax
$LN10@CommitMiss:
; File d:\programming\starshatter\trunk\stars45\sim.cpp

; 224  :                 if (s->GetElementIndex() == 1)

  000ec	83 7e 2c 01	 cmp	 DWORD PTR [esi+44], 1
  000f0	75 03		 jne	 SHORT $LN11@CommitMiss
; File d:\programming\starshatter\trunk\stars45\combatgroup.h

; 164  :     void           SetSorties(int n)                   { sorties = n;       }

  000f2	ff 41 78	 inc	 DWORD PTR [ecx+120]
$LN11@CommitMiss:
; File d:\programming\starshatter\trunk\stars45\sim.cpp

; 227  :                 group->SetKills(group->Kills() + s->GetGunKills() + s->GetMissileKills());

  000f5	8b 46 3c	 mov	 eax, DWORD PTR [esi+60]
  000f8	03 46 38	 add	 eax, DWORD PTR [esi+56]
; File d:\programming\starshatter\trunk\stars45\combatgroup.h

; 166  :     void           SetKills(int n)                     { kills = n;         }

  000fb	01 41 7c	 add	 DWORD PTR [ecx+124], eax

; 167  :     int            Points()                      const { return points;     }
; 168  :     void           SetPoints(int n)                    { points = n;        }

  000fe	8b 46 58	 mov	 eax, DWORD PTR [esi+88]
  00101	01 81 80 00 00
	00		 add	 DWORD PTR [ecx+128], eax
$LN9@CommitMiss:
; File d:\programming\starshatter\trunk\stars45\sim.cpp

; 231  :             if (s->IsPlayer()) {

  00107	80 7e 28 00	 cmp	 BYTE PTR [esi+40], 0
  0010b	74 4c		 je	 SHORT $LN5@CommitMiss

; 232  :                 Player* p = Player::GetCurrentPlayer();

  0010d	e8 00 00 00 00	 call	 ?GetCurrentPlayer@Player@@SAPAV1@XZ ; Player::GetCurrentPlayer
  00112	8b d8		 mov	 ebx, eax

; 233  :                 p->ProcessStats(s, start_time);

  00114	8b 45 fc	 mov	 eax, DWORD PTR _this$1$[ebp]
  00117	8b cb		 mov	 ecx, ebx
  00119	ff b0 c8 00 00
	00		 push	 DWORD PTR [eax+200]
  0011f	56		 push	 esi
  00120	e8 00 00 00 00	 call	 ?ProcessStats@Player@@QAEXPAVShipStats@@K@Z ; Player::ProcessStats

; 234  : 
; 235  :                 if (mission && mission->Type() == Mission::TRAINING && 
; 236  :                         s->GetDeaths() == 0 && s->GetColls() == 0)

  00125	8b 45 fc	 mov	 eax, DWORD PTR _this$1$[ebp]
  00128	8b 88 c0 00 00
	00		 mov	 ecx, DWORD PTR [eax+192]
  0012e	85 c9		 test	 ecx, ecx
  00130	74 1f		 je	 SHORT $LN13@CommitMiss
  00132	83 b9 a4 00 00
	00 16		 cmp	 DWORD PTR [ecx+164], 22	; 00000016H
  00139	75 16		 jne	 SHORT $LN13@CommitMiss
  0013b	83 7e 40 00	 cmp	 DWORD PTR [esi+64], 0
  0013f	75 10		 jne	 SHORT $LN13@CommitMiss
  00141	83 7e 44 00	 cmp	 DWORD PTR [esi+68], 0
  00145	75 0a		 jne	 SHORT $LN13@CommitMiss

; 237  :                 p->SetTrained(mission->Identity());

  00147	ff 71 08	 push	 DWORD PTR [ecx+8]
  0014a	8b cb		 mov	 ecx, ebx
  0014c	e8 00 00 00 00	 call	 ?SetTrained@Player@@QAEXH@Z ; Player::SetTrained
$LN13@CommitMiss:

; 238  : 
; 239  :                 Player::Save(); // save training state right now before we forget!

  00151	e8 00 00 00 00	 call	 ?Save@Player@@SAXXZ	; Player::Save
  00156	8b 5d ec	 mov	 ebx, DWORD PTR _tk1$1$[ebp]
$LN5@CommitMiss:

; 196  :         int tc  = 0;
; 197  : 
; 198  :         for (int i = 0; i < ShipStats::NumStats(); i++) {

  00159	47		 inc	 edi
  0015a	e8 00 00 00 00	 call	 ?NumStats@ShipStats@@SAHXZ ; ShipStats::NumStats
  0015f	3b f8		 cmp	 edi, eax
  00161	0f 8c 1f ff ff
	ff		 jl	 $LL7@CommitMiss
  00167	8b 75 f8	 mov	 esi, DWORD PTR _tk2$1$[ebp]
$LN6@CommitMiss:

; 240  :             }
; 241  :         }
; 242  : 
; 243  :         Print("--------------------------------------------\n");

  0016a	68 00 00 00 00	 push	 OFFSET ??_C@_0CO@IHAFINE@?9?9?9?9?9?9?9?9?9?9?9?9?9?9?9?9?9?9?9?9?9?9?9?9?9?9?9?9?9?9?9?9@
  0016f	e8 00 00 00 00	 call	 ?Print@@YAXPBDZZ	; Print
  00174	83 c4 04	 add	 esp, 4

; 244  :         Print("TOTAL             %5d  %5d  %5d  %5d\n\n", tk1, tk2, td, tc);

  00177	ff 75 f4	 push	 DWORD PTR _tc$1$[ebp]
  0017a	ff 75 f0	 push	 DWORD PTR _td$1$[ebp]
  0017d	56		 push	 esi
  0017e	53		 push	 ebx
  0017f	68 00 00 00 00	 push	 OFFSET ??_C@_0CH@GLANDEFM@TOTAL?5?5?5?5?5?5?5?5?5?5?5?5?5?$CF5d?5?5?$CF5d?5?5?$CF5d?5@
  00184	e8 00 00 00 00	 call	 ?Print@@YAXPBDZZ	; Print
  00189	83 c4 14	 add	 esp, 20			; 00000014H

; 245  : 
; 246  :         ShipStats::Initialize();

  0018c	e8 00 00 00 00	 call	 ?Initialize@ShipStats@@SAXXZ ; ShipStats::Initialize
$LN8@CommitMiss:

; 247  :     }
; 248  : }

  00191	5f		 pop	 edi
  00192	5e		 pop	 esi
  00193	5b		 pop	 ebx
  00194	8b e5		 mov	 esp, ebp
  00196	5d		 pop	 ebp
  00197	c3		 ret	 0
?CommitMission@Sim@@QAEXXZ ENDP				; Sim::CommitMission
_TEXT	ENDS
; Function compile flags: /Ogtp
; File d:\programming\starshatter\trunk\stars45\sim.cpp
; File d:\programming\starshatter\trunk\stars45\mission.h
; File d:\programming\starshatter\trunk\stars45\sim.cpp
_TEXT	SEGMENT
?UnloadMission@Sim@@QAEXXZ PROC				; Sim::UnloadMission
; _this$ = ecx

; 254  : {

  00000	56		 push	 esi
  00001	8b f1		 mov	 esi, ecx

; 255  :     if (netgame) {

  00003	8b 8e c4 00 00
	00		 mov	 ecx, DWORD PTR [esi+196]
  00009	85 c9		 test	 ecx, ecx
  0000b	74 10		 je	 SHORT $LN2@UnloadMiss

; 256  :         delete netgame;

  0000d	8b 01		 mov	 eax, DWORD PTR [ecx]
  0000f	6a 01		 push	 1
  00011	ff 10		 call	 DWORD PTR [eax]

; 257  :         netgame = 0;

  00013	c7 86 c4 00 00
	00 00 00 00 00	 mov	 DWORD PTR [esi+196], 0
$LN2@UnloadMiss:

; 258  :     }
; 259  : 
; 260  :     HUDView* hud = HUDView::GetInstance();

  0001d	8b 0d 00 00 00
	00		 mov	 ecx, DWORD PTR ?hud_view@HUDView@@1PAV1@A ; HUDView::hud_view

; 261  :     if (hud)

  00023	85 c9		 test	 ecx, ecx
  00025	74 05		 je	 SHORT $LN13@UnloadMiss

; 262  :     hud->HideAll();

  00027	8b 01		 mov	 eax, DWORD PTR [ecx]
  00029	ff 50 38	 call	 DWORD PTR [eax+56]
$LN13@UnloadMiss:

; 263  : 
; 264  :     ShipStats::Initialize();

  0002c	e8 00 00 00 00	 call	 ?Initialize@ShipStats@@SAXXZ ; ShipStats::Initialize

; 265  : 
; 266  :     events.destroy();

  00031	8d 8e a0 00 00
	00		 lea	 ecx, DWORD PTR [esi+160]
  00037	e8 00 00 00 00	 call	 ?destroy@?$List@VMissionEvent@@@@QAEXXZ ; List<MissionEvent>::destroy

; 267  :     mission_elements.destroy();

  0003c	8d 8e ac 00 00
	00		 lea	 ecx, DWORD PTR [esi+172]
  00042	e8 00 00 00 00	 call	 ?destroy@?$List@VMissionElement@@@@QAEXXZ ; List<MissionElement>::destroy

; 268  :     elements.destroy();

  00047	8d 8e 88 00 00
	00		 lea	 ecx, DWORD PTR [esi+136]
  0004d	e8 00 00 00 00	 call	 ?destroy@?$List@VElement@@@@QAEXXZ ; List<Element>::destroy

; 269  :     finished.destroy();

  00052	8d 8e 94 00 00
	00		 lea	 ecx, DWORD PTR [esi+148]
  00058	e8 00 00 00 00	 call	 ?destroy@?$List@VElement@@@@QAEXXZ ; List<Element>::destroy

; 270  : 
; 271  :     if (active_region)

  0005d	8b 4e 04	 mov	 ecx, DWORD PTR [esi+4]
  00060	85 c9		 test	 ecx, ecx
  00062	74 05		 je	 SHORT $LN15@UnloadMiss

; 272  :     active_region->Deactivate();

  00064	8b 01		 mov	 eax, DWORD PTR [ecx]
  00066	ff 50 08	 call	 DWORD PTR [eax+8]
$LN15@UnloadMiss:

; 273  : 
; 274  :     if (star_system)

  00069	8b 4e 08	 mov	 ecx, DWORD PTR [esi+8]
  0006c	85 c9		 test	 ecx, ecx
  0006e	74 05		 je	 SHORT $LN17@UnloadMiss

; 275  :     star_system->Deactivate();

  00070	8b 01		 mov	 eax, DWORD PTR [ecx]
  00072	ff 50 14	 call	 DWORD PTR [eax+20]
$LN17@UnloadMiss:

; 276  : 
; 277  :     if (mission) {

  00075	8b 86 c0 00 00
	00		 mov	 eax, DWORD PTR [esi+192]
  0007b	85 c0		 test	 eax, eax
  0007d	74 14		 je	 SHORT $LN6@UnloadMiss
; File d:\programming\starshatter\trunk\stars45\mission.h

; 165  :     void                 SetActive(bool a)             { active = a;        }

  0007f	c6 80 b9 00 00
	00 00		 mov	 BYTE PTR [eax+185], 0

; 166  :     void                 SetComplete(bool c)           { complete = c;      }

  00086	8b 86 c0 00 00
	00		 mov	 eax, DWORD PTR [esi+192]
  0008c	c6 80 ba 00 00
	00 01		 mov	 BYTE PTR [eax+186], 1
$LN6@UnloadMiss:
; File d:\programming\starshatter\trunk\stars45\sim.cpp

; 282  :     regions.destroy();

  00093	8d 4e 58	 lea	 ecx, DWORD PTR [esi+88]
  00096	e8 00 00 00 00	 call	 ?destroy@?$List@VSimRegion@@@@QAEXXZ ; List<SimRegion>::destroy

; 283  :     scene.Collect();

  0009b	8b 46 0c	 mov	 eax, DWORD PTR [esi+12]
  0009e	8d 4e 0c	 lea	 ecx, DWORD PTR [esi+12]
  000a1	ff 50 04	 call	 DWORD PTR [eax+4]

; 284  : 
; 285  :     GRAPHIC_DESTROY(dust);

  000a4	8b 4e 50	 mov	 ecx, DWORD PTR [esi+80]
  000a7	85 c9		 test	 ecx, ecx
  000a9	74 0c		 je	 SHORT $LN7@UnloadMiss
  000ab	8b 01		 mov	 eax, DWORD PTR [ecx]
  000ad	ff 50 44	 call	 DWORD PTR [eax+68]
  000b0	c7 46 50 00 00
	00 00		 mov	 DWORD PTR [esi+80], 0
$LN7@UnloadMiss:

; 286  : 
; 287  :     star_system   = 0;

  000b7	c7 46 08 00 00
	00 00		 mov	 DWORD PTR [esi+8], 0

; 288  :     active_region = 0;

  000be	c7 46 04 00 00
	00 00		 mov	 DWORD PTR [esi+4], 0

; 289  :     mission       = 0;

  000c5	c7 86 c0 00 00
	00 00 00 00 00	 mov	 DWORD PTR [esi+192], 0

; 290  : 
; 291  :     // reclaim memory used by radio traffic:
; 292  :     RadioTraffic::DiscardMessages();

  000cf	e8 00 00 00 00	 call	 ?DiscardMessages@RadioTraffic@@SAXXZ ; RadioTraffic::DiscardMessages

; 293  : 
; 294  :     // release texture memory for 2D screens:
; 295  :     Starshatter* stars = Starshatter::GetInstance();

  000d4	8b 0d 00 00 00
	00		 mov	 ecx, DWORD PTR ?instance@Starshatter@@1PAV1@A ; Starshatter::instance

; 296  :     if (stars)

  000da	85 c9		 test	 ecx, ecx
  000dc	74 05		 je	 SHORT $LN8@UnloadMiss

; 297  :     stars->InvalidateTextureCache();

  000de	e8 00 00 00 00	 call	 ?InvalidateTextureCache@Starshatter@@QAEXXZ ; Starshatter::InvalidateTextureCache
$LN8@UnloadMiss:

; 298  : 
; 299  :     cam_dir = CameraDirector::GetInstance();

  000e3	e8 00 00 00 00	 call	 ?GetInstance@CameraDirector@@SAPAV1@XZ ; CameraDirector::GetInstance
  000e8	89 46 54	 mov	 DWORD PTR [esi+84], eax

; 300  :     if (cam_dir)

  000eb	85 c0		 test	 eax, eax
  000ed	74 09		 je	 SHORT $LN19@UnloadMiss

; 301  :     cam_dir->SetShip(0);

  000ef	8b 10		 mov	 edx, DWORD PTR [eax]
  000f1	8b c8		 mov	 ecx, eax
  000f3	6a 00		 push	 0
  000f5	ff 52 28	 call	 DWORD PTR [edx+40]
$LN19@UnloadMiss:

; 302  : 
; 303  :     AudioConfig::SetTraining(false);

  000f8	32 c9		 xor	 cl, cl

; 304  : }

  000fa	5e		 pop	 esi

; 302  : 
; 303  :     AudioConfig::SetTraining(false);

  000fb	e9 00 00 00 00	 jmp	 ?SetTraining@AudioConfig@@SAX_N@Z ; AudioConfig::SetTraining
?UnloadMission@Sim@@QAEXXZ ENDP				; Sim::UnloadMission
_TEXT	ENDS
; Function compile flags: /Ogtp
; File d:\programming\starshatter\trunk\stars45\sim.cpp
; File d:\programming\starshatter\trunk\stars45\starshatter.h
; File d:\programming\starshatter\trunk\stars45\sim.cpp
; File d:\programming\starshatter\trunk\foundationex\list.h
; File d:\programming\starshatter\trunk\stars45\sim.cpp
; File d:\programming\starshatter\trunk\foundationex\list.h
; File d:\programming\starshatter\trunk\stars45\sim.cpp
; File d:\programming\starshatter\trunk\foundationex\list.h
; File d:\programming\starshatter\trunk\stars45\sim.h
; File d:\programming\starshatter\trunk\foundationex\list.h
; File d:\programming\starshatter\trunk\stars45\sim.cpp
_TEXT	SEGMENT
_rgn$1 = -8						; size = 8
?GetPlayerShip@Sim@@QAEPAVShip@@XZ PROC			; Sim::GetPlayerShip
; _this$ = ecx

; 1283 : {

  00000	55		 push	 ebp
  00001	8b ec		 mov	 ebp, esp
  00003	83 e4 f8	 and	 esp, -8			; fffffff8H

; 1284 :     if (active_region)

  00006	8b 41 04	 mov	 eax, DWORD PTR [ecx+4]
  00009	83 ec 0c	 sub	 esp, 12			; 0000000cH
  0000c	56		 push	 esi
  0000d	85 c0		 test	 eax, eax
  0000f	74 08		 je	 SHORT $LN4@GetPlayerS

; 1285 :     return active_region->GetPlayerShip();

  00011	8b 40 44	 mov	 eax, DWORD PTR [eax+68]

; 1300 : }

  00014	5e		 pop	 esi
  00015	8b e5		 mov	 esp, ebp
  00017	5d		 pop	 ebp
  00018	c3		 ret	 0
$LN4@GetPlayerS:

; 1286 : 
; 1287 :     Starshatter* stars = Starshatter::GetInstance();

  00019	a1 00 00 00 00	 mov	 eax, DWORD PTR ?instance@Starshatter@@1PAV1@A ; Starshatter::instance

; 1288 :     if (stars && stars->InCutscene()) {

  0001e	85 c0		 test	 eax, eax
  00020	74 52		 je	 SHORT $LN5@GetPlayerS
; File d:\programming\starshatter\trunk\stars45\starshatter.h

; 152  :     bool              InCutscene()         const { return cutscene > 0; }

  00022	83 b8 0c a6 00
	00 00		 cmp	 DWORD PTR [eax+42508], 0
; File d:\programming\starshatter\trunk\stars45\sim.cpp

; 1288 :     if (stars && stars->InCutscene()) {

  00029	7e 49		 jle	 SHORT $LN5@GetPlayerS

; 1290 : 
; 1291 :         ListIter<SimRegion> rgn = regions;

  0002b	8d 41 58	 lea	 eax, DWORD PTR [ecx+88]
; File d:\programming\starshatter\trunk\foundationex\list.h

; 106  :    ListIter(List<T>& l)             : list(&l),     step(-1)      { }

  0002e	c7 44 24 0c ff
	ff ff ff	 mov	 DWORD PTR _rgn$1[esp+20], -1

; 108  :    int operator++() { return next() != 0; }

  00036	8d 4c 24 08	 lea	 ecx, DWORD PTR _rgn$1[esp+16]

; 106  :    ListIter(List<T>& l)             : list(&l),     step(-1)      { }

  0003a	89 44 24 08	 mov	 DWORD PTR _rgn$1[esp+16], eax
; File d:\programming\starshatter\trunk\stars45\sim.cpp

; 1289 :         Ship* player = 0;

  0003e	33 f6		 xor	 esi, esi
; File d:\programming\starshatter\trunk\foundationex\list.h

; 108  :    int operator++() { return next() != 0; }

  00040	e8 00 00 00 00	 call	 ?next@?$ListIter@VSimRegion@@@@QAEPAVSimRegion@@XZ ; ListIter<SimRegion>::next
  00045	85 c0		 test	 eax, eax
; File d:\programming\starshatter\trunk\stars45\sim.cpp

; 1292 :         while (++rgn && !player) {

  00047	74 24		 je	 SHORT $LN3@GetPlayerS
  00049	0f 1f 80 00 00
	00 00		 npad	 7
$LL2@GetPlayerS:
  00050	85 f6		 test	 esi, esi
  00052	75 19		 jne	 SHORT $LN3@GetPlayerS
; File d:\programming\starshatter\trunk\foundationex\list.h

; 110  :    T*  operator->() { return value();     }

  00054	8d 4c 24 08	 lea	 ecx, DWORD PTR _rgn$1[esp+16]
  00058	e8 00 00 00 00	 call	 ?value@?$ListIter@VSimRegion@@@@QAEPAVSimRegion@@XZ ; ListIter<SimRegion>::value

; 108  :    int operator++() { return next() != 0; }

  0005d	8d 4c 24 08	 lea	 ecx, DWORD PTR _rgn$1[esp+16]
; File d:\programming\starshatter\trunk\stars45\sim.h

; 262  :     Ship*                GetPlayerShip() { return player_ship; }

  00061	8b 70 44	 mov	 esi, DWORD PTR [eax+68]
; File d:\programming\starshatter\trunk\foundationex\list.h

; 108  :    int operator++() { return next() != 0; }

  00064	e8 00 00 00 00	 call	 ?next@?$ListIter@VSimRegion@@@@QAEPAVSimRegion@@XZ ; ListIter<SimRegion>::next
  00069	85 c0		 test	 eax, eax
; File d:\programming\starshatter\trunk\stars45\sim.cpp

; 1292 :         while (++rgn && !player) {

  0006b	75 e3		 jne	 SHORT $LL2@GetPlayerS
$LN3@GetPlayerS:

; 1293 :             player = rgn->GetPlayerShip();
; 1294 :         }
; 1295 : 
; 1296 :         return player;

  0006d	8b c6		 mov	 eax, esi

; 1300 : }

  0006f	5e		 pop	 esi
  00070	8b e5		 mov	 esp, ebp
  00072	5d		 pop	 ebp
  00073	c3		 ret	 0
$LN5@GetPlayerS:

; 1297 :     }
; 1298 : 
; 1299 :     return 0;

  00074	33 c0		 xor	 eax, eax

; 1300 : }

  00076	5e		 pop	 esi
  00077	8b e5		 mov	 esp, ebp
  00079	5d		 pop	 ebp
  0007a	c3		 ret	 0
?GetPlayerShip@Sim@@QAEPAVShip@@XZ ENDP			; Sim::GetPlayerShip
_TEXT	ENDS
; Function compile flags: /Ogtp
; File d:\programming\starshatter\trunk\stars45\sim.cpp
; File d:\programming\starshatter\trunk\foundationex\list.h
; File d:\programming\starshatter\trunk\stars45\sim.cpp
_TEXT	SEGMENT
?GetPlayerElement@Sim@@QAEPAVElement@@XZ PROC		; Sim::GetPlayerElement
; _this$ = ecx

; 1304 : {

  00000	53		 push	 ebx
  00001	56		 push	 esi
  00002	57		 push	 edi

; 1305 :     Element* elem = 0;

  00003	33 f6		 xor	 esi, esi
; File d:\programming\starshatter\trunk\foundationex\list.h

; 74   :    int      size()    const      { return items;  }

  00005	8d 99 88 00 00
	00		 lea	 ebx, DWORD PTR [ecx+136]
; File d:\programming\starshatter\trunk\stars45\sim.cpp

; 1307 :     for (int i = 0; i < elements.size(); i++) {

  0000b	33 ff		 xor	 edi, edi
  0000d	39 33		 cmp	 DWORD PTR [ebx], esi
  0000f	7e 16		 jle	 SHORT $LN15@GetPlayerE
$LL4@GetPlayerE:

; 1308 :         Element* e = elements[i];

  00011	57		 push	 edi
  00012	8b cb		 mov	 ecx, ebx
  00014	e8 00 00 00 00	 call	 ??A?$List@VElement@@@@QAEAAPAVElement@@H@Z ; List<Element>::operator[]
  00019	8b 00		 mov	 eax, DWORD PTR [eax]

; 1309 : 
; 1310 :         if (e->Player() > 0)

  0001b	83 78 1c 00	 cmp	 DWORD PTR [eax+28], 0
  0001f	0f 4f f0	 cmovg	 esi, eax
  00022	47		 inc	 edi
  00023	3b 3b		 cmp	 edi, DWORD PTR [ebx]
  00025	7c ea		 jl	 SHORT $LL4@GetPlayerE
$LN15@GetPlayerE:
  00027	5f		 pop	 edi

; 1311 :         elem = e;
; 1312 :     }
; 1313 : 
; 1314 :     return elem;

  00028	8b c6		 mov	 eax, esi
  0002a	5e		 pop	 esi
  0002b	5b		 pop	 ebx

; 1315 : }

  0002c	c3		 ret	 0
?GetPlayerElement@Sim@@QAEPAVElement@@XZ ENDP		; Sim::GetPlayerElement
_TEXT	ENDS
; Function compile flags: /Ogtp
; File d:\programming\starshatter\trunk\stars45\sim.cpp
; File d:\programming\starshatter\trunk\foundationex\memdebug.h
; File d:\programming\starshatter\trunk\stars45\sim.cpp
; File d:\programming\starshatter\trunk\foundationex\memdebug.h
; File d:\programming\starshatter\trunk\stars45\sim.cpp
; File d:\programming\starshatter\trunk\ngenex\geometry.h
; File d:\programming\starshatter\trunk\stars45\sim.cpp
; File d:\programming\starshatter\trunk\ngenex\geometry.h
; File d:\programming\starshatter\trunk\stars45\sim.cpp
; File d:\programming\starshatter\trunk\ngenex\geometry.h
; File d:\programming\starshatter\trunk\stars45\sim.cpp
; File d:\programming\starshatter\trunk\ngenex\geometry.h
; File d:\programming\starshatter\trunk\stars45\sim.cpp
; File d:\programming\starshatter\trunk\ngenex\geometry.h
; File d:\programming\starshatter\trunk\stars45\sim.cpp
; File d:\programming\starshatter\trunk\ngenex\geometry.h
; File d:\programming\starshatter\trunk\stars45\sim.cpp
_TEXT	SEGMENT
$T2 = -36						; size = 12
$T3 = -24						; size = 12
__$EHRec$ = -12						; size = 12
_pos$ = 8						; size = 4
_vel$ = 12						; size = 4
_type$ = 16						; size = 4
_exp_scale$ = 20					; size = 4
_part_scale$ = 24					; size = 4
$T4 = 28						; size = 4
_rgn$ = 28						; size = 4
_source$ = 32						; size = 4
_sys$dead$ = 36						; size = 4
?CreateExplosion@Sim@@QAEPAVExplosion@@ABUPoint@@0HMMPAVSimRegion@@PAVSimObject@@PAVSystem@@@Z PROC ; Sim::CreateExplosion
; _this$ = ecx

; 1143 : {

  00000	55		 push	 ebp
  00001	8b ec		 mov	 ebp, esp
  00003	6a ff		 push	 -1
  00005	68 00 00 00 00	 push	 __ehhandler$?CreateExplosion@Sim@@QAEPAVExplosion@@ABUPoint@@0HMMPAVSimRegion@@PAVSimObject@@PAVSystem@@@Z
  0000a	64 a1 00 00 00
	00		 mov	 eax, DWORD PTR fs:0
  00010	50		 push	 eax
  00011	83 ec 18	 sub	 esp, 24			; 00000018H
  00014	56		 push	 esi
  00015	57		 push	 edi
  00016	a1 00 00 00 00	 mov	 eax, DWORD PTR ___security_cookie
  0001b	33 c5		 xor	 eax, ebp
  0001d	50		 push	 eax
  0001e	8d 45 f4	 lea	 eax, DWORD PTR __$EHRec$[ebp]
  00021	64 a3 00 00 00
	00		 mov	 DWORD PTR fs:0, eax

; 1144 :     // don't bother creating explosions that can't be seen:
; 1145 :     if (!rgn || !active_region || rgn != active_region)

  00027	8b 75 1c	 mov	 esi, DWORD PTR _rgn$[ebp]
  0002a	85 f6		 test	 esi, esi
  0002c	0f 84 e4 00 00
	00		 je	 $LN3@CreateExpl
  00032	8b 41 04	 mov	 eax, DWORD PTR [ecx+4]
  00035	85 c0		 test	 eax, eax
  00037	0f 84 d9 00 00
	00		 je	 $LN3@CreateExpl
  0003d	3b f0		 cmp	 esi, eax
  0003f	0f 85 d1 00 00
	00		 jne	 $LN3@CreateExpl
; File d:\programming\starshatter\trunk\foundationex\memdebug.h

; 92   : inline void* __cdecl operator new(unsigned int s, const char*, int) { return ::operator new(s);    }

  00045	68 20 02 00 00	 push	 544			; 00000220H
  0004a	e8 00 00 00 00	 call	 ??2@YAPAXI@Z		; operator new
; File d:\programming\starshatter\trunk\stars45\sim.cpp

; 1148 :     Explosion* exp = new(__FILE__,__LINE__) Explosion(type, pos, vel, exp_scale, part_scale, rgn, source);

  0004f	8b d0		 mov	 edx, eax
; File d:\programming\starshatter\trunk\foundationex\memdebug.h

; 92   : inline void* __cdecl operator new(unsigned int s, const char*, int) { return ::operator new(s);    }

  00051	83 c4 04	 add	 esp, 4
; File d:\programming\starshatter\trunk\stars45\sim.cpp

; 1148 :     Explosion* exp = new(__FILE__,__LINE__) Explosion(type, pos, vel, exp_scale, part_scale, rgn, source);

  00054	89 55 1c	 mov	 DWORD PTR $T4[ebp], edx
  00057	c7 45 fc 00 00
	00 00		 mov	 DWORD PTR __$EHRec$[ebp+8], 0
  0005e	85 d2		 test	 edx, edx
  00060	0f 84 8a 00 00
	00		 je	 $LN8@CreateExpl
; File d:\programming\starshatter\trunk\ngenex\geometry.h

; 222  :     operator Vec3() const { return Vec3((float) x, (float) y, (float) z); }

  00066	8b 4d 0c	 mov	 ecx, DWORD PTR _vel$[ebp]
  00069	8b 45 08	 mov	 eax, DWORD PTR _pos$[ebp]
; File d:\programming\starshatter\trunk\stars45\sim.cpp

; 1148 :     Explosion* exp = new(__FILE__,__LINE__) Explosion(type, pos, vel, exp_scale, part_scale, rgn, source);

  0006c	ff 75 20	 push	 DWORD PTR _source$[ebp]
  0006f	f2 0f 10 41 10	 movsd	 xmm0, QWORD PTR [ecx+16]
  00074	f2 0f 10 11	 movsd	 xmm2, QWORD PTR [ecx]
  00078	f2 0f 10 49 08	 movsd	 xmm1, QWORD PTR [ecx+8]
  0007d	8b ca		 mov	 ecx, edx
; File d:\programming\starshatter\trunk\ngenex\geometry.h

; 222  :     operator Vec3() const { return Vec3((float) x, (float) y, (float) z); }

  0007f	66 0f 5a c0	 cvtpd2ps xmm0, xmm0
; File d:\programming\starshatter\trunk\stars45\sim.cpp

; 1148 :     Explosion* exp = new(__FILE__,__LINE__) Explosion(type, pos, vel, exp_scale, part_scale, rgn, source);

  00083	56		 push	 esi
  00084	83 ec 08	 sub	 esp, 8
; File d:\programming\starshatter\trunk\ngenex\geometry.h

; 222  :     operator Vec3() const { return Vec3((float) x, (float) y, (float) z); }

  00087	66 0f 5a d2	 cvtpd2ps xmm2, xmm2

; 176  :     Vec3(float  ix, float  iy, float  iz) : x(ix),         y(iy),         z(iz)         { }

  0008b	f3 0f 11 45 f0	 movss	 DWORD PTR $T3[ebp+8], xmm0
  00090	f2 0f 10 40 10	 movsd	 xmm0, QWORD PTR [eax+16]

; 222  :     operator Vec3() const { return Vec3((float) x, (float) y, (float) z); }

  00095	66 0f 5a c0	 cvtpd2ps xmm0, xmm0
  00099	66 0f 5a c9	 cvtpd2ps xmm1, xmm1

; 176  :     Vec3(float  ix, float  iy, float  iz) : x(ix),         y(iy),         z(iz)         { }

  0009d	f3 0f 11 45 e4	 movss	 DWORD PTR $T2[ebp+8], xmm0
; File d:\programming\starshatter\trunk\stars45\sim.cpp

; 1148 :     Explosion* exp = new(__FILE__,__LINE__) Explosion(type, pos, vel, exp_scale, part_scale, rgn, source);

  000a2	f3 0f 10 45 18	 movss	 xmm0, DWORD PTR _part_scale$[ebp]
  000a7	f3 0f 11 44 24
	04		 movss	 DWORD PTR [esp+4], xmm0
  000ad	f3 0f 10 45 14	 movss	 xmm0, DWORD PTR _exp_scale$[ebp]
; File d:\programming\starshatter\trunk\ngenex\geometry.h

; 176  :     Vec3(float  ix, float  iy, float  iz) : x(ix),         y(iy),         z(iz)         { }

  000b2	f3 0f 11 55 e8	 movss	 DWORD PTR $T3[ebp], xmm2
  000b7	f2 0f 10 10	 movsd	 xmm2, QWORD PTR [eax]
  000bb	f3 0f 11 4d ec	 movss	 DWORD PTR $T3[ebp+4], xmm1
  000c0	f2 0f 10 48 08	 movsd	 xmm1, QWORD PTR [eax+8]
; File d:\programming\starshatter\trunk\stars45\sim.cpp

; 1148 :     Explosion* exp = new(__FILE__,__LINE__) Explosion(type, pos, vel, exp_scale, part_scale, rgn, source);

  000c5	8d 45 e8	 lea	 eax, DWORD PTR $T3[ebp]
  000c8	f3 0f 11 04 24	 movss	 DWORD PTR [esp], xmm0
  000cd	50		 push	 eax
; File d:\programming\starshatter\trunk\ngenex\geometry.h

; 222  :     operator Vec3() const { return Vec3((float) x, (float) y, (float) z); }

  000ce	66 0f 5a d2	 cvtpd2ps xmm2, xmm2
; File d:\programming\starshatter\trunk\stars45\sim.cpp

; 1148 :     Explosion* exp = new(__FILE__,__LINE__) Explosion(type, pos, vel, exp_scale, part_scale, rgn, source);

  000d2	8d 45 dc	 lea	 eax, DWORD PTR $T2[ebp]
  000d5	50		 push	 eax
  000d6	ff 75 10	 push	 DWORD PTR _type$[ebp]
; File d:\programming\starshatter\trunk\ngenex\geometry.h

; 222  :     operator Vec3() const { return Vec3((float) x, (float) y, (float) z); }

  000d9	66 0f 5a c9	 cvtpd2ps xmm1, xmm1

; 176  :     Vec3(float  ix, float  iy, float  iz) : x(ix),         y(iy),         z(iz)         { }

  000dd	f3 0f 11 55 dc	 movss	 DWORD PTR $T2[ebp], xmm2
  000e2	f3 0f 11 4d e0	 movss	 DWORD PTR $T2[ebp+4], xmm1
; File d:\programming\starshatter\trunk\stars45\sim.cpp

; 1148 :     Explosion* exp = new(__FILE__,__LINE__) Explosion(type, pos, vel, exp_scale, part_scale, rgn, source);

  000e7	e8 00 00 00 00	 call	 ??0Explosion@@QAE@HABUVec3@@0MMPAVSimRegion@@PAVSimObject@@@Z ; Explosion::Explosion
  000ec	8b f8		 mov	 edi, eax
  000ee	eb 02		 jmp	 SHORT $LN9@CreateExpl
$LN8@CreateExpl:
  000f0	33 ff		 xor	 edi, edi
$LN9@CreateExpl:
  000f2	c7 45 fc ff ff
	ff ff		 mov	 DWORD PTR __$EHRec$[ebp+8], -1
  000f9	8b ce		 mov	 ecx, esi

; 1149 : 
; 1150 :     if (rgn)
; 1151 :     rgn->InsertObject(exp);

  000fb	8b 06		 mov	 eax, DWORD PTR [esi]
  000fd	57		 push	 edi
  000fe	ff 50 20	 call	 DWORD PTR [eax+32]

; 1152 : 
; 1153 :     else if (active_region)
; 1154 :     active_region->InsertObject(exp);
; 1155 : 
; 1156 :     return exp;

  00101	8b c7		 mov	 eax, edi

; 1157 : }

  00103	8b 4d f4	 mov	 ecx, DWORD PTR __$EHRec$[ebp]
  00106	64 89 0d 00 00
	00 00		 mov	 DWORD PTR fs:0, ecx
  0010d	59		 pop	 ecx
  0010e	5f		 pop	 edi
  0010f	5e		 pop	 esi
  00110	8b e5		 mov	 esp, ebp
  00112	5d		 pop	 ebp
  00113	c2 20 00	 ret	 32			; 00000020H
$LN3@CreateExpl:

; 1146 :     return 0;

  00116	33 c0		 xor	 eax, eax

; 1157 : }

  00118	8b 4d f4	 mov	 ecx, DWORD PTR __$EHRec$[ebp]
  0011b	64 89 0d 00 00
	00 00		 mov	 DWORD PTR fs:0, ecx
  00122	59		 pop	 ecx
  00123	5f		 pop	 edi
  00124	5e		 pop	 esi
  00125	8b e5		 mov	 esp, ebp
  00127	5d		 pop	 ebp
  00128	c2 20 00	 ret	 32			; 00000020H
_TEXT	ENDS
text$x	SEGMENT
__unwindfunclet$?CreateExplosion@Sim@@QAEPAVExplosion@@ABUPoint@@0HMMPAVSimRegion@@PAVSimObject@@PAVSystem@@@Z$0:
  00000	68 7c 04 00 00	 push	 1148			; 0000047cH
  00005	68 00 00 00 00	 push	 OFFSET ??_C@_07MHJMBJCP@Sim?4cpp?$AA@
  0000a	8b 45 1c	 mov	 eax, DWORD PTR $T4[ebp]
  0000d	50		 push	 eax
  0000e	e8 00 00 00 00	 call	 ??3@YAXPAXPBDH@Z	; operator delete
  00013	83 c4 0c	 add	 esp, 12			; 0000000cH
  00016	c3		 ret	 0
__ehhandler$?CreateExplosion@Sim@@QAEPAVExplosion@@ABUPoint@@0HMMPAVSimRegion@@PAVSimObject@@PAVSystem@@@Z:
  00017	8b 54 24 08	 mov	 edx, DWORD PTR [esp+8]
  0001b	8d 42 0c	 lea	 eax, DWORD PTR [edx+12]
  0001e	8b 4a dc	 mov	 ecx, DWORD PTR [edx-36]
  00021	33 c8		 xor	 ecx, eax
  00023	e8 00 00 00 00	 call	 @__security_check_cookie@4
  00028	b8 00 00 00 00	 mov	 eax, OFFSET __ehfuncinfo$?CreateExplosion@Sim@@QAEPAVExplosion@@ABUPoint@@0HMMPAVSimRegion@@PAVSimObject@@PAVSystem@@@Z
  0002d	e9 00 00 00 00	 jmp	 ___CxxFrameHandler3
text$x	ENDS
?CreateExplosion@Sim@@QAEPAVExplosion@@ABUPoint@@0HMMPAVSimRegion@@PAVSimObject@@PAVSystem@@@Z ENDP ; Sim::CreateExplosion
; Function compile flags: /Ogtp
; File d:\programming\starshatter\trunk\stars45\sim.cpp
_TEXT	SEGMENT
_object$ = 8						; size = 4
?FindNearestTerrainRegion@Sim@@QAEPAVSimRegion@@PAVSimObject@@@Z PROC ; Sim::FindNearestTerrainRegion
; _this$ = ecx

; 1406 : {

  00000	55		 push	 ebp
  00001	8b ec		 mov	 ebp, esp
  00003	51		 push	 ecx

; 1407 :     return FindNearestRegion(object, AIR_SPACE);

  00004	6a 01		 push	 1
  00006	ff 75 08	 push	 DWORD PTR _object$[ebp]
  00009	e8 00 00 00 00	 call	 ?FindNearestRegion@Sim@@QAEPAVSimRegion@@PAVSimObject@@H@Z ; Sim::FindNearestRegion
  0000e	59		 pop	 ecx

; 1408 : }

  0000f	5d		 pop	 ebp
  00010	c2 04 00	 ret	 4
?FindNearestTerrainRegion@Sim@@QAEPAVSimRegion@@PAVSimObject@@@Z ENDP ; Sim::FindNearestTerrainRegion
_TEXT	ENDS
; Function compile flags: /Ogtp
; File d:\programming\starshatter\trunk\stars45\sim.cpp
; File d:\programming\starshatter\trunk\foundationex\list.h
; File d:\programming\starshatter\trunk\stars45\sim.cpp
; File d:\programming\starshatter\trunk\foundationex\list.h
; File d:\programming\starshatter\trunk\stars45\sim.cpp
; File d:\programming\starshatter\trunk\foundationex\list.h
; File d:\programming\starshatter\trunk\stars45\sim.cpp
; File d:\programming\starshatter\trunk\foundationex\list.h
; File d:\programming\starshatter\trunk\stars45\sim.cpp
_TEXT	SEGMENT
_rgn$1 = -8						; size = 8
_name$ = 8						; size = 4
_rgn_name$ = 12						; size = 4
?FindShip@Sim@@QAEPAVShip@@PBD0@Z PROC			; Sim::FindShip
; _this$ = ecx

; 1041 : {

  00000	55		 push	 ebp
  00001	8b ec		 mov	 ebp, esp
  00003	83 e4 f8	 and	 esp, -8			; fffffff8H

; 1042 :     Ship* ship = 0;
; 1043 : 
; 1044 :     if (rgn_name) {

  00006	8b 45 0c	 mov	 eax, DWORD PTR _rgn_name$[ebp]
  00009	83 ec 0c	 sub	 esp, 12			; 0000000cH
  0000c	53		 push	 ebx
  0000d	56		 push	 esi
  0000e	33 f6		 xor	 esi, esi
  00010	8b d9		 mov	 ebx, ecx
  00012	57		 push	 edi
  00013	8b 7d 08	 mov	 edi, DWORD PTR _name$[ebp]
  00016	85 c0		 test	 eax, eax
  00018	74 18		 je	 SHORT $LN18@FindShip

; 1045 :         SimRegion* rgn = FindRegion(rgn_name);

  0001a	50		 push	 eax
  0001b	e8 00 00 00 00	 call	 ?FindRegion@Sim@@QAEPAVSimRegion@@PBD@Z ; Sim::FindRegion

; 1046 :         if (rgn)

  00020	85 c0		 test	 eax, eax
  00022	74 0e		 je	 SHORT $LN18@FindShip

; 1047 :         ship = rgn->FindShip(name);

  00024	57		 push	 edi
  00025	8b c8		 mov	 ecx, eax
  00027	e8 00 00 00 00	 call	 ?FindShip@SimRegion@@QAEPAVShip@@PBD@Z ; SimRegion::FindShip
  0002c	8b f0		 mov	 esi, eax

; 1048 :     }
; 1049 : 
; 1050 :     if (!ship) {

  0002e	85 f6		 test	 esi, esi
  00030	75 44		 jne	 SHORT $LN3@FindShip
$LN18@FindShip:

; 1051 :         ListIter<SimRegion> rgn = regions;

  00032	8d 43 58	 lea	 eax, DWORD PTR [ebx+88]
; File d:\programming\starshatter\trunk\foundationex\list.h

; 106  :    ListIter(List<T>& l)             : list(&l),     step(-1)      { }

  00035	c7 44 24 14 ff
	ff ff ff	 mov	 DWORD PTR _rgn$1[esp+28], -1

; 108  :    int operator++() { return next() != 0; }

  0003d	8d 4c 24 10	 lea	 ecx, DWORD PTR _rgn$1[esp+24]

; 106  :    ListIter(List<T>& l)             : list(&l),     step(-1)      { }

  00041	89 44 24 10	 mov	 DWORD PTR _rgn$1[esp+24], eax

; 108  :    int operator++() { return next() != 0; }

  00045	e8 00 00 00 00	 call	 ?next@?$ListIter@VSimRegion@@@@QAEPAVSimRegion@@XZ ; ListIter<SimRegion>::next
  0004a	85 c0		 test	 eax, eax
; File d:\programming\starshatter\trunk\stars45\sim.cpp

; 1052 :         while (++rgn && !ship)

  0004c	74 26		 je	 SHORT $LN19@FindShip
  0004e	66 90		 npad	 2
$LL2@FindShip:
  00050	85 f6		 test	 esi, esi
  00052	75 20		 jne	 SHORT $LN19@FindShip
; File d:\programming\starshatter\trunk\foundationex\list.h

; 110  :    T*  operator->() { return value();     }

  00054	8d 4c 24 10	 lea	 ecx, DWORD PTR _rgn$1[esp+24]
  00058	e8 00 00 00 00	 call	 ?value@?$ListIter@VSimRegion@@@@QAEPAVSimRegion@@XZ ; ListIter<SimRegion>::value
; File d:\programming\starshatter\trunk\stars45\sim.cpp

; 1053 :         ship = rgn->FindShip(name);

  0005d	57		 push	 edi
  0005e	8b c8		 mov	 ecx, eax
  00060	e8 00 00 00 00	 call	 ?FindShip@SimRegion@@QAEPAVShip@@PBD@Z ; SimRegion::FindShip
; File d:\programming\starshatter\trunk\foundationex\list.h

; 108  :    int operator++() { return next() != 0; }

  00065	8d 4c 24 10	 lea	 ecx, DWORD PTR _rgn$1[esp+24]
; File d:\programming\starshatter\trunk\stars45\sim.cpp

; 1053 :         ship = rgn->FindShip(name);

  00069	8b f0		 mov	 esi, eax
; File d:\programming\starshatter\trunk\foundationex\list.h

; 108  :    int operator++() { return next() != 0; }

  0006b	e8 00 00 00 00	 call	 ?next@?$ListIter@VSimRegion@@@@QAEPAVSimRegion@@XZ ; ListIter<SimRegion>::next
  00070	85 c0		 test	 eax, eax
; File d:\programming\starshatter\trunk\stars45\sim.cpp

; 1052 :         while (++rgn && !ship)

  00072	75 dc		 jne	 SHORT $LL2@FindShip
$LN19@FindShip:

; 1054 :     }
; 1055 : 
; 1056 :     return ship;

  00074	8b c6		 mov	 eax, esi
$LN3@FindShip:

; 1057 : }

  00076	5f		 pop	 edi
  00077	5e		 pop	 esi
  00078	5b		 pop	 ebx
  00079	8b e5		 mov	 esp, ebp
  0007b	5d		 pop	 ebp
  0007c	c2 08 00	 ret	 8
?FindShip@Sim@@QAEPAVShip@@PBD0@Z ENDP			; Sim::FindShip
_TEXT	ENDS
; Function compile flags: /Ogtp
; File d:\programming\starshatter\trunk\stars45\sim.cpp
; File d:\programming\starshatter\trunk\foundationex\memdebug.h
; File d:\programming\starshatter\trunk\stars45\sim.cpp
; File d:\programming\starshatter\trunk\foundationex\memdebug.h
; File d:\programming\starshatter\trunk\stars45\sim.cpp
; File d:\programming\starshatter\trunk\ngenex\geometry.h
; File d:\programming\starshatter\trunk\stars45\sim.cpp
; File d:\programming\starshatter\trunk\ngenex\geometry.h
; File d:\programming\starshatter\trunk\stars45\sim.cpp
; File d:\programming\starshatter\trunk\ngenex\geometry.h
; File d:\programming\starshatter\trunk\stars45\sim.cpp
_TEXT	SEGMENT
$T1 = 8							; size = 4
_obj$ = 8						; size = 4
_rgn$ = 12						; size = 4
_loc$ = 16						; size = 4
_type$ = 20						; size = 4
_fc1$ = 24						; size = 4
_fc2$ = 28						; size = 4
?RequestHyperJump@Sim@@QAEXPAVShip@@PAVSimRegion@@ABUPoint@@H00@Z PROC ; Sim::RequestHyperJump
; _this$ = ecx

; 1503 : {

  00000	55		 push	 ebp
  00001	8b ec		 mov	 ebp, esp
  00003	53		 push	 ebx
  00004	56		 push	 esi

; 1504 :     bool hyperdrive = false;
; 1505 : 
; 1506 :     if (obj->GetQuantumDrive() && obj->GetQuantumDrive()->Subtype() == QuantumDrive::HYPER)

  00005	8b 75 08	 mov	 esi, DWORD PTR _obj$[ebp]
  00008	32 db		 xor	 bl, bl
  0000a	57		 push	 edi
  0000b	8b f9		 mov	 edi, ecx
  0000d	8b 86 38 03 00
	00		 mov	 eax, DWORD PTR [esi+824]
  00013	85 c0		 test	 eax, eax
  00015	74 0e		 je	 SHORT $LN2@RequestHyp
  00017	b9 01 00 00 00	 mov	 ecx, 1
  0001c	0f b6 db	 movzx	 ebx, bl
  0001f	39 48 14	 cmp	 DWORD PTR [eax+20], ecx
  00022	0f 44 d9	 cmove	 ebx, ecx
$LN2@RequestHyp:
; File d:\programming\starshatter\trunk\foundationex\memdebug.h

; 92   : inline void* __cdecl operator new(unsigned int s, const char*, int) { return ::operator new(s);    }

  00025	6a 30		 push	 48			; 00000030H
  00027	e8 00 00 00 00	 call	 ??2@YAPAXI@Z		; operator new
; File d:\programming\starshatter\trunk\stars45\sim.cpp

; 1509 :     jumplist.append(new(__FILE__,__LINE__) SimHyper(obj, rgn, loc, type, hyperdrive, fc1, fc2));

  0002c	8b d0		 mov	 edx, eax
; File d:\programming\starshatter\trunk\foundationex\memdebug.h

; 92   : inline void* __cdecl operator new(unsigned int s, const char*, int) { return ::operator new(s);    }

  0002e	83 c4 04	 add	 esp, 4
; File d:\programming\starshatter\trunk\stars45\sim.cpp

; 1509 :     jumplist.append(new(__FILE__,__LINE__) SimHyper(obj, rgn, loc, type, hyperdrive, fc1, fc2));

  00031	89 55 08	 mov	 DWORD PTR $T1[ebp], edx
  00034	85 d2		 test	 edx, edx
  00036	74 4d		 je	 SHORT $LN4@RequestHyp
; File d:\programming\starshatter\trunk\ngenex\geometry.h

; 219  :     Point(const Point& p)                  : x(p.x), y(p.y), z(p.z)  { }

  00038	8b 45 10	 mov	 eax, DWORD PTR _loc$[ebp]
; File d:\programming\starshatter\trunk\stars45\sim.cpp

; 114  :     : ship(o), rgn(r), loc(l), type(t), hyperdrive(h), fc_src(fc1), fc_dst(fc2)  { }

  0003b	8b 4d 0c	 mov	 ecx, DWORD PTR _rgn$[ebp]
  0003e	89 4a 04	 mov	 DWORD PTR [edx+4], ecx

; 1509 :     jumplist.append(new(__FILE__,__LINE__) SimHyper(obj, rgn, loc, type, hyperdrive, fc1, fc2));

  00041	8d 4f 70	 lea	 ecx, DWORD PTR [edi+112]

; 114  :     : ship(o), rgn(r), loc(l), type(t), hyperdrive(h), fc_src(fc1), fc_dst(fc2)  { }

  00044	89 32		 mov	 DWORD PTR [edx], esi
; File d:\programming\starshatter\trunk\ngenex\geometry.h

; 219  :     Point(const Point& p)                  : x(p.x), y(p.y), z(p.z)  { }

  00046	f2 0f 10 00	 movsd	 xmm0, QWORD PTR [eax]
  0004a	f2 0f 11 42 08	 movsd	 QWORD PTR [edx+8], xmm0
  0004f	f2 0f 10 40 08	 movsd	 xmm0, QWORD PTR [eax+8]
  00054	f2 0f 11 42 10	 movsd	 QWORD PTR [edx+16], xmm0
  00059	f2 0f 10 40 10	 movsd	 xmm0, QWORD PTR [eax+16]
; File d:\programming\starshatter\trunk\stars45\sim.cpp

; 114  :     : ship(o), rgn(r), loc(l), type(t), hyperdrive(h), fc_src(fc1), fc_dst(fc2)  { }

  0005e	8b 45 14	 mov	 eax, DWORD PTR _type$[ebp]
; File d:\programming\starshatter\trunk\ngenex\geometry.h

; 219  :     Point(const Point& p)                  : x(p.x), y(p.y), z(p.z)  { }

  00061	f2 0f 11 42 18	 movsd	 QWORD PTR [edx+24], xmm0
; File d:\programming\starshatter\trunk\stars45\sim.cpp

; 114  :     : ship(o), rgn(r), loc(l), type(t), hyperdrive(h), fc_src(fc1), fc_dst(fc2)  { }

  00066	89 42 20	 mov	 DWORD PTR [edx+32], eax
  00069	8b 45 18	 mov	 eax, DWORD PTR _fc1$[ebp]
  0006c	89 42 28	 mov	 DWORD PTR [edx+40], eax
  0006f	8b 45 1c	 mov	 eax, DWORD PTR _fc2$[ebp]

; 1509 :     jumplist.append(new(__FILE__,__LINE__) SimHyper(obj, rgn, loc, type, hyperdrive, fc1, fc2));

  00072	52		 push	 edx

; 114  :     : ship(o), rgn(r), loc(l), type(t), hyperdrive(h), fc_src(fc1), fc_dst(fc2)  { }

  00073	88 5a 24	 mov	 BYTE PTR [edx+36], bl
  00076	89 42 2c	 mov	 DWORD PTR [edx+44], eax

; 1509 :     jumplist.append(new(__FILE__,__LINE__) SimHyper(obj, rgn, loc, type, hyperdrive, fc1, fc2));

  00079	e8 00 00 00 00	 call	 ?append@?$List@VSimHyper@@@@QAEXPBVSimHyper@@@Z ; List<SimHyper>::append
  0007e	5f		 pop	 edi
  0007f	5e		 pop	 esi
  00080	5b		 pop	 ebx

; 1510 : }

  00081	5d		 pop	 ebp
  00082	c2 18 00	 ret	 24			; 00000018H
$LN4@RequestHyp:

; 1509 :     jumplist.append(new(__FILE__,__LINE__) SimHyper(obj, rgn, loc, type, hyperdrive, fc1, fc2));

  00085	33 d2		 xor	 edx, edx
  00087	8d 4f 70	 lea	 ecx, DWORD PTR [edi+112]
  0008a	52		 push	 edx
  0008b	e8 00 00 00 00	 call	 ?append@?$List@VSimHyper@@@@QAEXPBVSimHyper@@@Z ; List<SimHyper>::append
  00090	5f		 pop	 edi
  00091	5e		 pop	 esi
  00092	5b		 pop	 ebx

; 1510 : }

  00093	5d		 pop	 ebp
  00094	c2 18 00	 ret	 24			; 00000018H
?RequestHyperJump@Sim@@QAEXPAVShip@@PAVSimRegion@@ABUPoint@@H00@Z ENDP ; Sim::RequestHyperJump
_TEXT	ENDS
; Function compile flags: /Ogtp
; File d:\programming\starshatter\trunk\stars45\sim.cpp
; File d:\programming\starshatter\trunk\foundationex\list.h
; File d:\programming\starshatter\trunk\stars45\sim.cpp
; File d:\programming\starshatter\trunk\stars45\missionevent.h
; File d:\programming\starshatter\trunk\stars45\sim.cpp
; File d:\programming\starshatter\trunk\foundationex\list.h
; File d:\programming\starshatter\trunk\stars45\sim.cpp
_TEXT	SEGMENT
$T2 = -44						; size = 8
$T3 = -36						; size = 8
_ship_name$ = -28					; size = 8
_iter$ = -20						; size = 8
__$EHRec$ = -12						; size = 12
_type$ = 8						; size = 4
_event_id$ = 12						; size = 4
_ship$ = 16						; size = 4
_param$ = 20						; size = 4
?ProcessEventTrigger@Sim@@QAEXHHPBDH@Z PROC		; Sim::ProcessEventTrigger
; _this$ = ecx

; 1882 : {

  00000	55		 push	 ebp
  00001	8b ec		 mov	 ebp, esp
  00003	6a ff		 push	 -1
  00005	68 00 00 00 00	 push	 __ehhandler$?ProcessEventTrigger@Sim@@QAEXHHPBDH@Z
  0000a	64 a1 00 00 00
	00		 mov	 eax, DWORD PTR fs:0
  00010	50		 push	 eax
  00011	83 ec 20	 sub	 esp, 32			; 00000020H
  00014	53		 push	 ebx
  00015	56		 push	 esi
  00016	57		 push	 edi
  00017	a1 00 00 00 00	 mov	 eax, DWORD PTR ___security_cookie
  0001c	33 c5		 xor	 eax, ebp
  0001e	50		 push	 eax
  0001f	8d 45 f4	 lea	 eax, DWORD PTR __$EHRec$[ebp]
  00022	64 a3 00 00 00
	00		 mov	 DWORD PTR fs:0, eax
  00028	8b f1		 mov	 esi, ecx

; 1883 :     Text ship_name = ship;

  0002a	ff 75 10	 push	 DWORD PTR _ship$[ebp]
  0002d	8d 4d e4	 lea	 ecx, DWORD PTR _ship_name$[ebp]
  00030	e8 00 00 00 00	 call	 ??0Text@@QAE@PBD@Z	; Text::Text
  00035	c7 45 fc 00 00
	00 00		 mov	 DWORD PTR __$EHRec$[ebp+8], 0

; 1884 : 
; 1885 :     ListIter<MissionEvent> iter = events;

  0003c	8d 86 a0 00 00
	00		 lea	 eax, DWORD PTR [esi+160]
; File d:\programming\starshatter\trunk\foundationex\list.h

; 108  :    int operator++() { return next() != 0; }

  00042	8d 4d ec	 lea	 ecx, DWORD PTR _iter$[ebp]

; 106  :    ListIter(List<T>& l)             : list(&l),     step(-1)      { }

  00045	89 45 ec	 mov	 DWORD PTR _iter$[ebp], eax
  00048	c7 45 f0 ff ff
	ff ff		 mov	 DWORD PTR _iter$[ebp+4], -1

; 108  :    int operator++() { return next() != 0; }

  0004f	e8 00 00 00 00	 call	 ?next@?$ListIter@VMissionEvent@@@@QAEPAVMissionEvent@@XZ ; ListIter<MissionEvent>::next
  00054	85 c0		 test	 eax, eax
; File d:\programming\starshatter\trunk\stars45\sim.cpp

; 1886 :     while (++iter) {

  00056	0f 84 83 00 00
	00		 je	 $LN3@ProcessEve
  0005c	8b 5d 14	 mov	 ebx, DWORD PTR _param$[ebp]
  0005f	8b 7d 08	 mov	 edi, DWORD PTR _type$[ebp]
$LL2@ProcessEve:

; 1887 :         MissionEvent* event = iter.value();

  00062	8d 4d ec	 lea	 ecx, DWORD PTR _iter$[ebp]
  00065	e8 00 00 00 00	 call	 ?value@?$ListIter@VMissionEvent@@@@QAEPAVMissionEvent@@XZ ; ListIter<MissionEvent>::value
  0006a	8b f0		 mov	 esi, eax
; File d:\programming\starshatter\trunk\stars45\missionevent.h

; 124  :     bool                 IsPending()       const { return status == PENDING;  }

  0006c	83 7e 0c 00	 cmp	 DWORD PTR [esi+12], 0
; File d:\programming\starshatter\trunk\stars45\sim.cpp

; 1889 :         if (event->IsPending() && event->Trigger() == type) {

  00070	75 61		 jne	 SHORT $LN14@ProcessEve
  00072	39 be 98 00 00
	00		 cmp	 DWORD PTR [esi+152], edi
  00078	75 59		 jne	 SHORT $LN14@ProcessEve

; 1890 :             switch (type) {

  0007a	8d 47 ff	 lea	 eax, DWORD PTR [edi-1]
  0007d	83 f8 08	 cmp	 eax, 8
  00080	77 51		 ja	 SHORT $LN14@ProcessEve
  00082	0f b6 80 00 00
	00 00		 movzx	 eax, BYTE PTR $LN34@ProcessEve[eax]
  00089	ff 24 85 00 00
	00 00		 jmp	 DWORD PTR $LN39@ProcessEve[eax*4]
$LN7@ProcessEve:

; 1891 :             case MissionEvent::TRIGGER_DAMAGE:
; 1892 :             case MissionEvent::TRIGGER_DESTROYED:
; 1893 :             case MissionEvent::TRIGGER_JUMP:
; 1894 :             case MissionEvent::TRIGGER_LAUNCH:
; 1895 :             case MissionEvent::TRIGGER_DOCK:
; 1896 :             case MissionEvent::TRIGGER_TARGET:
; 1897 :                 if (event->TriggerParam() <= param) {

  00090	6a 00		 push	 0
  00092	8b ce		 mov	 ecx, esi
  00094	e8 00 00 00 00	 call	 ?TriggerParam@MissionEvent@@QBEHH@Z ; MissionEvent::TriggerParam
  00099	3b c3		 cmp	 eax, ebx
  0009b	7f 36		 jg	 SHORT $LN14@ProcessEve

; 1898 :                     if (ship_name.indexOf(event->TriggerShip()) == 0)

  0009d	8d 45 dc	 lea	 eax, DWORD PTR $T3[ebp]
  000a0	50		 push	 eax
  000a1	e8 00 00 00 00	 call	 ?TriggerShip@MissionEvent@@QBE?AVText@@XZ ; MissionEvent::TriggerShip
  000a6	c6 45 fc 01	 mov	 BYTE PTR __$EHRec$[ebp+8], 1
  000aa	8d 4d e4	 lea	 ecx, DWORD PTR _ship_name$[ebp]
  000ad	ff 30		 push	 DWORD PTR [eax]
  000af	e8 00 00 00 00	 call	 ?indexOf@Text@@QBEHPBD@Z ; Text::indexOf
  000b4	85 c0		 test	 eax, eax
  000b6	c6 45 fc 00	 mov	 BYTE PTR __$EHRec$[ebp+8], 0
  000ba	8d 4d dc	 lea	 ecx, DWORD PTR $T3[ebp]
  000bd	0f 94 c3	 sete	 bl
$LN38@ProcessEve:

; 1905 :                     if (ship_name.indexOf(event->TriggerShip()) == 0)

  000c0	e8 00 00 00 00	 call	 ??1Text@@QAE@XZ		; Text::~Text
  000c5	84 db		 test	 bl, bl
  000c7	74 07		 je	 SHORT $LN36@ProcessEve

; 1906 :                     event->Activate();

  000c9	8b ce		 mov	 ecx, esi
  000cb	e8 00 00 00 00	 call	 ?Activate@MissionEvent@@QAEXXZ ; MissionEvent::Activate
$LN36@ProcessEve:
  000d0	8b 5d 14	 mov	 ebx, DWORD PTR _param$[ebp]
$LN14@ProcessEve:
; File d:\programming\starshatter\trunk\foundationex\list.h

; 108  :    int operator++() { return next() != 0; }

  000d3	8d 4d ec	 lea	 ecx, DWORD PTR _iter$[ebp]
  000d6	e8 00 00 00 00	 call	 ?next@?$ListIter@VMissionEvent@@@@QAEPAVMissionEvent@@XZ ; ListIter<MissionEvent>::next
  000db	85 c0		 test	 eax, eax
; File d:\programming\starshatter\trunk\stars45\sim.cpp

; 1886 :     while (++iter) {

  000dd	75 83		 jne	 SHORT $LL2@ProcessEve
$LN3@ProcessEve:

; 1914 :                 break;
; 1915 :             }
; 1916 :         }
; 1917 :     }
; 1918 : }

  000df	8d 4d e4	 lea	 ecx, DWORD PTR _ship_name$[ebp]
  000e2	e8 00 00 00 00	 call	 ??1Text@@QAE@XZ		; Text::~Text
  000e7	8b 4d f4	 mov	 ecx, DWORD PTR __$EHRec$[ebp]
  000ea	64 89 0d 00 00
	00 00		 mov	 DWORD PTR fs:0, ecx
  000f1	59		 pop	 ecx
  000f2	5f		 pop	 edi
  000f3	5e		 pop	 esi
  000f4	5b		 pop	 ebx
  000f5	8b e5		 mov	 esp, ebp
  000f7	5d		 pop	 ebp
  000f8	c2 10 00	 ret	 16			; 00000010H
$LN10@ProcessEve:

; 1899 :                     event->Activate();
; 1900 :                 }
; 1901 :                 break;
; 1902 : 
; 1903 :             case MissionEvent::TRIGGER_NAVPT:
; 1904 :                 if (event->TriggerParam() == param) {

  000fb	6a 00		 push	 0
  000fd	8b ce		 mov	 ecx, esi
  000ff	e8 00 00 00 00	 call	 ?TriggerParam@MissionEvent@@QBEHH@Z ; MissionEvent::TriggerParam
  00104	3b c3		 cmp	 eax, ebx
  00106	75 cb		 jne	 SHORT $LN14@ProcessEve

; 1905 :                     if (ship_name.indexOf(event->TriggerShip()) == 0)

  00108	8d 45 d4	 lea	 eax, DWORD PTR $T2[ebp]
  0010b	50		 push	 eax
  0010c	e8 00 00 00 00	 call	 ?TriggerShip@MissionEvent@@QBE?AVText@@XZ ; MissionEvent::TriggerShip
  00111	c6 45 fc 02	 mov	 BYTE PTR __$EHRec$[ebp+8], 2
  00115	8d 4d e4	 lea	 ecx, DWORD PTR _ship_name$[ebp]
  00118	ff 30		 push	 DWORD PTR [eax]
  0011a	e8 00 00 00 00	 call	 ?indexOf@Text@@QBEHPBD@Z ; Text::indexOf
  0011f	85 c0		 test	 eax, eax
  00121	c6 45 fc 00	 mov	 BYTE PTR __$EHRec$[ebp+8], 0
  00125	8d 4d d4	 lea	 ecx, DWORD PTR $T2[ebp]
  00128	0f 94 c3	 sete	 bl

; 1907 :                 }
; 1908 :                 break;

  0012b	eb 93		 jmp	 SHORT $LN38@ProcessEve
$LN13@ProcessEve:

; 1909 : 
; 1910 :             case MissionEvent::TRIGGER_EVENT:
; 1911 :             case MissionEvent::TRIGGER_SKIPPED:
; 1912 :                 if (event->TriggerParam() == event_id)

  0012d	6a 00		 push	 0
  0012f	8b ce		 mov	 ecx, esi
  00131	e8 00 00 00 00	 call	 ?TriggerParam@MissionEvent@@QBEHH@Z ; MissionEvent::TriggerParam
  00136	3b 45 0c	 cmp	 eax, DWORD PTR _event_id$[ebp]
  00139	75 98		 jne	 SHORT $LN14@ProcessEve

; 1913 :                 event->Activate();

  0013b	e8 00 00 00 00	 call	 ?Activate@MissionEvent@@QAEXXZ ; MissionEvent::Activate
  00140	eb 91		 jmp	 SHORT $LN14@ProcessEve
  00142	66 90		 npad	 2
$LN39@ProcessEve:

; 1914 :                 break;
; 1915 :             }
; 1916 :         }
; 1917 :     }
; 1918 : }

  00144	00 00 00 00	 DD	 $LN7@ProcessEve
  00148	00 00 00 00	 DD	 $LN10@ProcessEve
  0014c	00 00 00 00	 DD	 $LN13@ProcessEve
$LN34@ProcessEve:
  00150	00		 DB	 0
  00151	00		 DB	 0
  00152	00		 DB	 0
  00153	00		 DB	 0
  00154	00		 DB	 0
  00155	01		 DB	 1
  00156	02		 DB	 2
  00157	02		 DB	 2
  00158	00		 DB	 0
_TEXT	ENDS
text$x	SEGMENT
__unwindfunclet$?ProcessEventTrigger@Sim@@QAEXHHPBDH@Z$0:
  00000	8d 4d e4	 lea	 ecx, DWORD PTR _ship_name$[ebp]
  00003	e9 00 00 00 00	 jmp	 ??1Text@@QAE@XZ		; Text::~Text
__unwindfunclet$?ProcessEventTrigger@Sim@@QAEXHHPBDH@Z$1:
  00008	8d 4d dc	 lea	 ecx, DWORD PTR $T3[ebp]
  0000b	e9 00 00 00 00	 jmp	 ??1Text@@QAE@XZ		; Text::~Text
__unwindfunclet$?ProcessEventTrigger@Sim@@QAEXHHPBDH@Z$2:
  00010	8d 4d d4	 lea	 ecx, DWORD PTR $T2[ebp]
  00013	e9 00 00 00 00	 jmp	 ??1Text@@QAE@XZ		; Text::~Text
__ehhandler$?ProcessEventTrigger@Sim@@QAEXHHPBDH@Z:
  00018	8b 54 24 08	 mov	 edx, DWORD PTR [esp+8]
  0001c	8d 42 0c	 lea	 eax, DWORD PTR [edx+12]
  0001f	8b 4a d0	 mov	 ecx, DWORD PTR [edx-48]
  00022	33 c8		 xor	 ecx, eax
  00024	e8 00 00 00 00	 call	 @__security_check_cookie@4
  00029	b8 00 00 00 00	 mov	 eax, OFFSET __ehfuncinfo$?ProcessEventTrigger@Sim@@QAEXHHPBDH@Z
  0002e	e9 00 00 00 00	 jmp	 ___CxxFrameHandler3
text$x	ENDS
?ProcessEventTrigger@Sim@@QAEXHHPBDH@Z ENDP		; Sim::ProcessEventTrigger
; Function compile flags: /Ogtp
; File d:\programming\starshatter\trunk\stars45\sim.cpp
; File d:\programming\starshatter\trunk\foundationex\list.h
; File d:\programming\starshatter\trunk\stars45\sim.cpp
; File d:\programming\starshatter\trunk\foundationex\list.h
; File d:\programming\starshatter\trunk\stars45\sim.cpp
; File d:\programming\starshatter\trunk\stars45\element.h
; File d:\programming\starshatter\trunk\stars45\sim.cpp
; File d:\programming\starshatter\trunk\foundationex\text.h
; File d:\programming\starshatter\trunk\stars45\sim.cpp
; File d:\programming\starshatter\trunk\foundationex\text.h
; File d:\programming\starshatter\trunk\stars45\sim.cpp
; File d:\programming\starshatter\trunk\foundationex\list.h
; File d:\programming\starshatter\trunk\stars45\sim.cpp
_TEXT	SEGMENT
_ename$1 = -16						; size = 8
_iter$ = -8						; size = 8
_name$ = 8						; size = 4
?FindElement@Sim@@QAEPAVElement@@PBD@Z PROC		; Sim::FindElement
; _this$ = ecx

; 977  : {

  00000	55		 push	 ebp
  00001	8b ec		 mov	 ebp, esp
  00003	83 e4 f8	 and	 esp, -8			; fffffff8H
  00006	83 ec 10	 sub	 esp, 16			; 00000010H
  00009	56		 push	 esi

; 978  :     ListIter<Element> iter = elements;

  0000a	8d 81 88 00 00
	00		 lea	 eax, DWORD PTR [ecx+136]
; File d:\programming\starshatter\trunk\foundationex\list.h

; 106  :    ListIter(List<T>& l)             : list(&l),     step(-1)      { }

  00010	c7 44 24 10 ff
	ff ff ff	 mov	 DWORD PTR _iter$[esp+24], -1
; File d:\programming\starshatter\trunk\stars45\sim.cpp

; 977  : {

  00018	57		 push	 edi
; File d:\programming\starshatter\trunk\foundationex\list.h

; 108  :    int operator++() { return next() != 0; }

  00019	8d 4c 24 10	 lea	 ecx, DWORD PTR _iter$[esp+24]

; 106  :    ListIter(List<T>& l)             : list(&l),     step(-1)      { }

  0001d	89 44 24 10	 mov	 DWORD PTR _iter$[esp+24], eax

; 108  :    int operator++() { return next() != 0; }

  00021	e8 00 00 00 00	 call	 ?next@?$ListIter@VElement@@@@QAEPAVElement@@XZ ; ListIter<Element>::next
  00026	85 c0		 test	 eax, eax
; File d:\programming\starshatter\trunk\stars45\sim.cpp

; 980  :     while (++iter) {

  00028	74 7c		 je	 SHORT $LN3@FindElemen
  0002a	8b 75 08	 mov	 esi, DWORD PTR _name$[ebp]
  0002d	0f 1f 00	 npad	 3
$LL2@FindElemen:

; 981  :         Element* elem  = iter.value();

  00030	8d 4c 24 10	 lea	 ecx, DWORD PTR _iter$[esp+24]
  00034	e8 00 00 00 00	 call	 ?value@?$ListIter@VElement@@@@QAEPAVElement@@XZ ; ListIter<Element>::value
  00039	8b f8		 mov	 edi, eax
; File d:\programming\starshatter\trunk\stars45\element.h

; 71   :     const Text&       Name()            const { return name;             }

  0003b	8d 4f 2c	 lea	 ecx, DWORD PTR [edi+44]
; File d:\programming\starshatter\trunk\stars45\sim.cpp

; 982  :         Text     ename = elem->Name();

  0003e	51		 push	 ecx
  0003f	8d 4c 24 0c	 lea	 ecx, DWORD PTR _ename$1[esp+28]
  00043	e8 00 00 00 00	 call	 ??0Text@@QAE@ABV0@@Z	; Text::Text
; File d:\programming\starshatter\trunk\foundationex\text.h

; 160  :    if (rep->sensitive)

  00048	8b 4c 24 0c	 mov	 ecx, DWORD PTR _ename$1[esp+28]
  0004c	80 79 10 00	 cmp	 BYTE PTR [ecx+16], 0
  00050	74 2d		 je	 SHORT $LN16@FindElemen

; 161  :       return strcmp(sym, s);

  00052	8b 44 24 08	 mov	 eax, DWORD PTR _ename$1[esp+24]
  00056	8b ce		 mov	 ecx, esi
$LL24@FindElemen:
  00058	8a 10		 mov	 dl, BYTE PTR [eax]
  0005a	3a 11		 cmp	 dl, BYTE PTR [ecx]
  0005c	75 1a		 jne	 SHORT $LN25@FindElemen
  0005e	84 d2		 test	 dl, dl
  00060	74 12		 je	 SHORT $LN26@FindElemen
  00062	8a 50 01	 mov	 dl, BYTE PTR [eax+1]
  00065	3a 51 01	 cmp	 dl, BYTE PTR [ecx+1]
  00068	75 0e		 jne	 SHORT $LN25@FindElemen
  0006a	83 c0 02	 add	 eax, 2
  0006d	83 c1 02	 add	 ecx, 2
  00070	84 d2		 test	 dl, dl
  00072	75 e4		 jne	 SHORT $LL24@FindElemen
$LN26@FindElemen:
  00074	33 c0		 xor	 eax, eax
  00076	eb 14		 jmp	 SHORT $LN17@FindElemen
$LN25@FindElemen:
  00078	1b c0		 sbb	 eax, eax
  0007a	83 c8 01	 or	 eax, 1
  0007d	eb 0d		 jmp	 SHORT $LN17@FindElemen
$LN16@FindElemen:

; 162  :    else
; 163  :       return _stricmp(sym, s);

  0007f	56		 push	 esi
  00080	ff 74 24 0c	 push	 DWORD PTR _ename$1[esp+28]
  00084	e8 00 00 00 00	 call	 __stricmp
  00089	83 c4 08	 add	 esp, 8
$LN17@FindElemen:
; File d:\programming\starshatter\trunk\stars45\sim.cpp

; 986  :     }

  0008c	8d 4c 24 08	 lea	 ecx, DWORD PTR _ename$1[esp+24]
; File d:\programming\starshatter\trunk\foundationex\text.h

; 198  : inline int operator==(const Text& l, const char* r) { return l.compare(r) == 0; }

  00090	85 c0		 test	 eax, eax
; File d:\programming\starshatter\trunk\stars45\sim.cpp

; 984  :         if (ename == name)

  00092	74 1c		 je	 SHORT $LN20@FindElemen

; 986  :     }

  00094	e8 00 00 00 00	 call	 ??1Text@@QAE@XZ		; Text::~Text
; File d:\programming\starshatter\trunk\foundationex\list.h

; 108  :    int operator++() { return next() != 0; }

  00099	8d 4c 24 10	 lea	 ecx, DWORD PTR _iter$[esp+24]
  0009d	e8 00 00 00 00	 call	 ?next@?$ListIter@VElement@@@@QAEPAVElement@@XZ ; ListIter<Element>::next
  000a2	85 c0		 test	 eax, eax
; File d:\programming\starshatter\trunk\stars45\sim.cpp

; 980  :     while (++iter) {

  000a4	75 8a		 jne	 SHORT $LL2@FindElemen
$LN3@FindElemen:

; 987  : 
; 988  :     return 0;

  000a6	33 c0		 xor	 eax, eax

; 989  : }

  000a8	5f		 pop	 edi
  000a9	5e		 pop	 esi
  000aa	8b e5		 mov	 esp, ebp
  000ac	5d		 pop	 ebp
  000ad	c2 04 00	 ret	 4
$LN20@FindElemen:

; 985  :         return elem;

  000b0	e8 00 00 00 00	 call	 ??1Text@@QAE@XZ		; Text::~Text
  000b5	8b c7		 mov	 eax, edi

; 989  : }

  000b7	5f		 pop	 edi
  000b8	5e		 pop	 esi
  000b9	8b e5		 mov	 esp, ebp
  000bb	5d		 pop	 ebp
  000bc	c2 04 00	 ret	 4
?FindElement@Sim@@QAEPAVElement@@PBD@Z ENDP		; Sim::FindElement
_TEXT	ENDS
; Function compile flags: /Ogtp
; File d:\programming\starshatter\trunk\stars45\sim.cpp
_TEXT	SEGMENT
_elem$ = 8						; size = 4
?DestroyElement@Sim@@QAEXPAVElement@@@Z PROC		; Sim::DestroyElement
; _this$ = ecx

; 968  : {

  00000	55		 push	 ebp
  00001	8b ec		 mov	 ebp, esp
  00003	56		 push	 esi

; 969  :     if (elements.contains(elem))

  00004	8b 75 08	 mov	 esi, DWORD PTR _elem$[ebp]
  00007	57		 push	 edi
  00008	8d b9 88 00 00
	00		 lea	 edi, DWORD PTR [ecx+136]
  0000e	56		 push	 esi
  0000f	8b cf		 mov	 ecx, edi
  00011	e8 00 00 00 00	 call	 ?contains@?$List@VElement@@@@QBE_NPBVElement@@@Z ; List<Element>::contains
  00016	84 c0		 test	 al, al
  00018	74 08		 je	 SHORT $LN2@DestroyEle

; 970  :     elements.remove(elem);

  0001a	56		 push	 esi
  0001b	8b cf		 mov	 ecx, edi
  0001d	e8 00 00 00 00	 call	 ?remove@?$List@VElement@@@@QAEPAVElement@@PBV2@@Z ; List<Element>::remove
$LN2@DestroyEle:

; 971  : 
; 972  :     delete elem;

  00022	85 f6		 test	 esi, esi
  00024	74 08		 je	 SHORT $LN4@DestroyEle
  00026	8b 06		 mov	 eax, DWORD PTR [esi]
  00028	8b ce		 mov	 ecx, esi
  0002a	6a 01		 push	 1
  0002c	ff 10		 call	 DWORD PTR [eax]
$LN4@DestroyEle:
  0002e	5f		 pop	 edi
  0002f	5e		 pop	 esi

; 973  : }

  00030	5d		 pop	 ebp
  00031	c2 04 00	 ret	 4
?DestroyElement@Sim@@QAEXPAVElement@@@Z ENDP		; Sim::DestroyElement
_TEXT	ENDS
; Function compile flags: /Ogtp
; File d:\programming\starshatter\trunk\stars45\sim.cpp
; File d:\programming\starshatter\trunk\foundationex\memdebug.h
; File d:\programming\starshatter\trunk\stars45\sim.cpp
; File d:\programming\starshatter\trunk\foundationex\text.h
; File d:\programming\starshatter\trunk\stars45\sim.cpp
; File d:\programming\starshatter\trunk\ngenex\physical.h
; File d:\programming\starshatter\trunk\stars45\sim.cpp
; File d:\programming\starshatter\trunk\ngenex\physical.h
; File d:\programming\starshatter\trunk\stars45\sim.cpp
; File d:\programming\starshatter\trunk\ngenex\geometry.h
; File d:\programming\starshatter\trunk\stars45\sim.cpp
_TEXT	SEGMENT
$T2 = -64						; size = 24
$T3 = -40						; size = 24
$T4 = -40						; size = 24
__$EHRec$ = -12						; size = 12
_name$ = 8						; size = 4
_reg_num$ = 12						; size = 4
$T5 = 16						; size = 4
_design$ = 16						; size = 4
_rgn_name$ = 20						; size = 4
_loc$ = 24						; size = 4
_IFF$ = 28						; size = 4
_cmd_ai$ = 32						; size = 4
_loadout$ = 36						; size = 4
?CreateShip@Sim@@QAEPAVShip@@PBD0PAVShipDesign@@0ABUPoint@@HHPBH@Z PROC ; Sim::CreateShip
; _this$ = ecx

; 1013 : {

  00000	55		 push	 ebp
  00001	8b ec		 mov	 ebp, esp
  00003	6a ff		 push	 -1
  00005	68 00 00 00 00	 push	 __ehhandler$?CreateShip@Sim@@QAEPAVShip@@PBD0PAVShipDesign@@0ABUPoint@@HHPBH@Z
  0000a	64 a1 00 00 00
	00		 mov	 eax, DWORD PTR fs:0
  00010	50		 push	 eax
  00011	83 ec 34	 sub	 esp, 52			; 00000034H
  00014	53		 push	 ebx
  00015	56		 push	 esi
  00016	57		 push	 edi
  00017	a1 00 00 00 00	 mov	 eax, DWORD PTR ___security_cookie
  0001c	33 c5		 xor	 eax, ebp
  0001e	50		 push	 eax
  0001f	8d 45 f4	 lea	 eax, DWORD PTR __$EHRec$[ebp]
  00022	64 a3 00 00 00
	00		 mov	 DWORD PTR fs:0, eax

; 1014 :     if (!design) {

  00028	8b 75 10	 mov	 esi, DWORD PTR _design$[ebp]
  0002b	85 f6		 test	 esi, esi
  0002d	75 26		 jne	 SHORT $LN2@CreateShip

; 1015 :         Print("WARNING: CreateShip(%s): invalid design\n", name);

  0002f	ff 75 08	 push	 DWORD PTR _name$[ebp]
  00032	68 00 00 00 00	 push	 OFFSET ??_C@_0CJ@BABHFBHK@WARNING?3?5CreateShip?$CI?$CFs?$CJ?3?5invalid@
  00037	e8 00 00 00 00	 call	 ?Print@@YAXPBDZZ	; Print
  0003c	83 c4 08	 add	 esp, 8
$LN47@CreateShip:

; 1016 :         return 0;

  0003f	33 c0		 xor	 eax, eax

; 1037 : }

  00041	8b 4d f4	 mov	 ecx, DWORD PTR __$EHRec$[ebp]
  00044	64 89 0d 00 00
	00 00		 mov	 DWORD PTR fs:0, ecx
  0004b	59		 pop	 ecx
  0004c	5f		 pop	 edi
  0004d	5e		 pop	 esi
  0004e	5b		 pop	 ebx
  0004f	8b e5		 mov	 esp, ebp
  00051	5d		 pop	 ebp
  00052	c2 20 00	 ret	 32			; 00000020H
$LN2@CreateShip:

; 1017 :     }
; 1018 : 
; 1019 :     SimRegion* rgn = FindRegion(rgn_name);

  00055	ff 75 14	 push	 DWORD PTR _rgn_name$[ebp]
  00058	e8 00 00 00 00	 call	 ?FindRegion@Sim@@QAEPAVSimRegion@@PBD@Z ; Sim::FindRegion
  0005d	8b d8		 mov	 ebx, eax

; 1020 : 
; 1021 :     if (!rgn) {

  0005f	85 db		 test	 ebx, ebx
  00061	74 dc		 je	 SHORT $LN47@CreateShip
; File d:\programming\starshatter\trunk\foundationex\memdebug.h

; 92   : inline void* __cdecl operator new(unsigned int s, const char*, int) { return ::operator new(s);    }

  00063	68 d0 04 00 00	 push	 1232			; 000004d0H
  00068	e8 00 00 00 00	 call	 ??2@YAPAXI@Z		; operator new
  0006d	83 c4 04	 add	 esp, 4
; File d:\programming\starshatter\trunk\stars45\sim.cpp

; 1025 :     Ship* ship = new(__FILE__,__LINE__) Ship(name, reg_num, design, IFF, cmd_ai, loadout);

  00070	89 45 10	 mov	 DWORD PTR $T5[ebp], eax
  00073	c7 45 fc 00 00
	00 00		 mov	 DWORD PTR __$EHRec$[ebp+8], 0
  0007a	85 c0		 test	 eax, eax
  0007c	74 1b		 je	 SHORT $LN7@CreateShip
  0007e	ff 75 24	 push	 DWORD PTR _loadout$[ebp]
  00081	8b c8		 mov	 ecx, eax
  00083	ff 75 20	 push	 DWORD PTR _cmd_ai$[ebp]
  00086	ff 75 1c	 push	 DWORD PTR _IFF$[ebp]
  00089	56		 push	 esi
  0008a	ff 75 0c	 push	 DWORD PTR _reg_num$[ebp]
  0008d	ff 75 08	 push	 DWORD PTR _name$[ebp]
  00090	e8 00 00 00 00	 call	 ??0Ship@@QAE@PBD0PAVShipDesign@@HHPBH@Z ; Ship::Ship
  00095	8b f8		 mov	 edi, eax
  00097	eb 02		 jmp	 SHORT $LN8@CreateShip
$LN7@CreateShip:
  00099	33 ff		 xor	 edi, edi
$LN8@CreateShip:

; 1026 :     ship->MoveTo(loc.OtherHand());

  0009b	8b 4d 18	 mov	 ecx, DWORD PTR _loc$[ebp]
  0009e	8d 45 d8	 lea	 eax, DWORD PTR $T4[ebp]
  000a1	c7 45 fc ff ff
	ff ff		 mov	 DWORD PTR __$EHRec$[ebp+8], -1
  000a8	8b 17		 mov	 edx, DWORD PTR [edi]
  000aa	50		 push	 eax
  000ab	e8 00 00 00 00	 call	 ?OtherHand@Point@@QBE?AU1@XZ ; Point::OtherHand
  000b0	50		 push	 eax
  000b1	8b cf		 mov	 ecx, edi
  000b3	ff 52 1c	 call	 DWORD PTR [edx+28]
; File d:\programming\starshatter\trunk\foundationex\text.h

; 130  :    operator const char* () const { return sym; }

  000b6	8b 73 0c	 mov	 esi, DWORD PTR [ebx+12]
; File d:\programming\starshatter\trunk\stars45\sim.cpp

; 1029 :         Print("Inserting Ship(%s) into Region(%s) (%s)\n", ship->Name(), rgn->Name(), FormatGameTime());

  000b9	e8 00 00 00 00	 call	 ?FormatGameTime@@YAPBDXZ ; FormatGameTime
  000be	50		 push	 eax
  000bf	56		 push	 esi
; File d:\programming\starshatter\trunk\ngenex\physical.h

; 102  :     const char*       Name()      const { return name;       }

  000c0	8d 47 10	 lea	 eax, DWORD PTR [edi+16]
; File d:\programming\starshatter\trunk\stars45\sim.cpp

; 1029 :         Print("Inserting Ship(%s) into Region(%s) (%s)\n", ship->Name(), rgn->Name(), FormatGameTime());

  000c3	50		 push	 eax
  000c4	68 00 00 00 00	 push	 OFFSET ??_C@_0CJ@POPAIFMC@Inserting?5Ship?$CI?$CFs?$CJ?5into?5Region?$CI?$CF@
  000c9	e8 00 00 00 00	 call	 ?Print@@YAXPBDZZ	; Print

; 1030 :         rgn->InsertObject(ship);

  000ce	8b 03		 mov	 eax, DWORD PTR [ebx]
  000d0	83 c4 10	 add	 esp, 16			; 00000010H
  000d3	8b cb		 mov	 ecx, ebx
  000d5	57		 push	 edi
  000d6	ff 50 28	 call	 DWORD PTR [eax+40]

; 1031 : 
; 1032 :         if (ship->IsAirborne() && ship->AltitudeAGL() > 25)

  000d9	8b cf		 mov	 ecx, edi
  000db	e8 00 00 00 00	 call	 ?IsAirborne@Ship@@QBE_NXZ ; Ship::IsAirborne
  000e0	84 c0		 test	 al, al
  000e2	74 69		 je	 SHORT $LN11@CreateShip
  000e4	8b cf		 mov	 ecx, edi
  000e6	e8 00 00 00 00	 call	 ?AltitudeAGL@Ship@@QBENXZ ; Ship::AltitudeAGL
  000eb	66 0f 2f 05 00
	00 00 00	 comisd	 xmm0, QWORD PTR __real@4039000000000000
  000f3	76 58		 jbe	 SHORT $LN11@CreateShip
; File d:\programming\starshatter\trunk\ngenex\physical.h

; 105  :     Point             Heading()   const { return cam.vpn();  }

  000f5	8d 45 d8	 lea	 eax, DWORD PTR $T3[ebp]
  000f8	50		 push	 eax
  000f9	8d 4f 40	 lea	 ecx, DWORD PTR [edi+64]
  000fc	e8 00 00 00 00	 call	 ?vpn@Camera@@QBE?AUPoint@@XZ ; Camera::vpn
; File d:\programming\starshatter\trunk\stars45\sim.cpp

; 1033 :         ship->SetVelocity(ship->Heading() * 250);

  00101	f2 0f 10 15 00
	00 00 00	 movsd	 xmm2, QWORD PTR __real@406f400000000000
  00109	8d 45 c0	 lea	 eax, DWORD PTR $T2[ebp]
  0010c	50		 push	 eax
  0010d	8d 4d d8	 lea	 ecx, DWORD PTR $T3[ebp]
  00110	e8 00 00 00 00	 call	 ??DPoint@@QBE?AU0@N@Z	; Point::operator*
  00115	8b 17		 mov	 edx, DWORD PTR [edi]
  00117	81 fa 00 00 00
	00		 cmp	 edx, OFFSET ??_7Ship@@6BSimObject@@@
  0011d	75 28		 jne	 SHORT $LN12@CreateShip
; File d:\programming\starshatter\trunk\ngenex\geometry.h

; 235  :     Point& operator= (const Point& p)      { x =p.x; y =p.y; z =p.z; return *this; }

  0011f	f2 0f 10 00	 movsd	 xmm0, QWORD PTR [eax]
  00123	f2 0f 11 87 a8
	00 00 00	 movsd	 QWORD PTR [edi+168], xmm0
  0012b	f2 0f 10 40 08	 movsd	 xmm0, QWORD PTR [eax+8]
  00130	f2 0f 11 87 b0
	00 00 00	 movsd	 QWORD PTR [edi+176], xmm0
  00138	f2 0f 10 40 10	 movsd	 xmm0, QWORD PTR [eax+16]
  0013d	f2 0f 11 87 b8
	00 00 00	 movsd	 QWORD PTR [edi+184], xmm0
  00145	eb 06		 jmp	 SHORT $LN11@CreateShip
$LN12@CreateShip:
  00147	50		 push	 eax
  00148	8b cf		 mov	 ecx, edi
; File d:\programming\starshatter\trunk\stars45\sim.cpp

; 1033 :         ship->SetVelocity(ship->Heading() * 250);

  0014a	ff 52 6c	 call	 DWORD PTR [edx+108]
$LN11@CreateShip:

; 1034 :     }
; 1035 : 
; 1036 :     return ship;

  0014d	8b c7		 mov	 eax, edi

; 1037 : }

  0014f	8b 4d f4	 mov	 ecx, DWORD PTR __$EHRec$[ebp]
  00152	64 89 0d 00 00
	00 00		 mov	 DWORD PTR fs:0, ecx
  00159	59		 pop	 ecx
  0015a	5f		 pop	 edi
  0015b	5e		 pop	 esi
  0015c	5b		 pop	 ebx
  0015d	8b e5		 mov	 esp, ebp
  0015f	5d		 pop	 ebp
  00160	c2 20 00	 ret	 32			; 00000020H
_TEXT	ENDS
text$x	SEGMENT
__unwindfunclet$?CreateShip@Sim@@QAEPAVShip@@PBD0PAVShipDesign@@0ABUPoint@@HHPBH@Z$0:
  00000	68 01 04 00 00	 push	 1025			; 00000401H
  00005	68 00 00 00 00	 push	 OFFSET ??_C@_07MHJMBJCP@Sim?4cpp?$AA@
  0000a	8b 45 10	 mov	 eax, DWORD PTR $T5[ebp]
  0000d	50		 push	 eax
  0000e	e8 00 00 00 00	 call	 ??3@YAXPAXPBDH@Z	; operator delete
  00013	83 c4 0c	 add	 esp, 12			; 0000000cH
  00016	c3		 ret	 0
__ehhandler$?CreateShip@Sim@@QAEPAVShip@@PBD0PAVShipDesign@@0ABUPoint@@HHPBH@Z:
  00017	8b 54 24 08	 mov	 edx, DWORD PTR [esp+8]
  0001b	8d 42 0c	 lea	 eax, DWORD PTR [edx+12]
  0001e	8b 4a bc	 mov	 ecx, DWORD PTR [edx-68]
  00021	33 c8		 xor	 ecx, eax
  00023	e8 00 00 00 00	 call	 @__security_check_cookie@4
  00028	b8 00 00 00 00	 mov	 eax, OFFSET __ehfuncinfo$?CreateShip@Sim@@QAEPAVShip@@PBD0PAVShipDesign@@0ABUPoint@@HHPBH@Z
  0002d	e9 00 00 00 00	 jmp	 ___CxxFrameHandler3
text$x	ENDS
?CreateShip@Sim@@QAEPAVShip@@PBD0PAVShipDesign@@0ABUPoint@@HHPBH@Z ENDP ; Sim::CreateShip
; Function compile flags: /Ogtp
; File d:\programming\starshatter\trunk\stars45\sim.cpp
; File d:\programming\starshatter\trunk\stars45\simobject.h
; File d:\programming\starshatter\trunk\stars45\sim.cpp
_TEXT	SEGMENT
_ship$ = 8						; size = 4
?DestroyShip@Sim@@QAEXPAVShip@@@Z PROC			; Sim::DestroyShip
; _this$dead$ = ecx

; 1061 : {

  00000	55		 push	 ebp
  00001	8b ec		 mov	 ebp, esp
  00003	56		 push	 esi
  00004	8b 75 08	 mov	 esi, DWORD PTR _ship$[ebp]
  00007	8b 06		 mov	 eax, DWORD PTR [esi]
  00009	8b 80 90 00 00
	00		 mov	 eax, DWORD PTR [eax+144]
  0000f	3d 00 00 00 00	 cmp	 eax, OFFSET ?GetRegion@SimObject@@UBEPAVSimRegion@@XZ ; SimObject::GetRegion
  00014	75 17		 jne	 SHORT $LN8@DestroyShi
; File d:\programming\starshatter\trunk\stars45\simobject.h

; 76   :     virtual SimRegion*   GetRegion()                const { return region; }

  00016	8b 86 c8 01 00
	00		 mov	 eax, DWORD PTR [esi+456]
$LN4@DestroyShi:
; File d:\programming\starshatter\trunk\stars45\sim.cpp

; 1063 :     if (rgn)

  0001c	85 c0		 test	 eax, eax
  0001e	74 08		 je	 SHORT $LN2@DestroyShi

; 1064 :     rgn->DestroyShip(ship);

  00020	56		 push	 esi
  00021	8b c8		 mov	 ecx, eax
  00023	e8 00 00 00 00	 call	 ?DestroyShip@SimRegion@@IAEXPAVShip@@@Z ; SimRegion::DestroyShip
$LN2@DestroyShi:
  00028	5e		 pop	 esi

; 1065 : }

  00029	5d		 pop	 ebp
  0002a	c2 04 00	 ret	 4
$LN8@DestroyShi:
  0002d	8b ce		 mov	 ecx, esi

; 1062 :     SimRegion* rgn = ship->GetRegion();

  0002f	ff d0		 call	 eax
  00031	eb e9		 jmp	 SHORT $LN4@DestroyShi
?DestroyShip@Sim@@QAEXPAVShip@@@Z ENDP			; Sim::DestroyShip
_TEXT	ENDS
; Function compile flags: /Ogtp
; File d:\programming\starshatter\trunk\stars45\sim.cpp
; File d:\programming\starshatter\trunk\foundationex\list.h
; File d:\programming\starshatter\trunk\stars45\sim.cpp
; File d:\programming\starshatter\trunk\foundationex\list.h
; File d:\programming\starshatter\trunk\stars45\sim.cpp
; File d:\programming\starshatter\trunk\foundationex\list.h
; File d:\programming\starshatter\trunk\stars45\sim.cpp
_TEXT	SEGMENT
_rgn$ = -8						; size = 8
_show$ = 8						; size = 4
?ShowGrid@Sim@@QAEXH@Z PROC				; Sim::ShowGrid
; _this$ = ecx

; 1238 : {

  00000	55		 push	 ebp
  00001	8b ec		 mov	 ebp, esp
  00003	83 e4 f8	 and	 esp, -8			; fffffff8H
  00006	83 ec 08	 sub	 esp, 8
  00009	56		 push	 esi
  0000a	57		 push	 edi
  0000b	8b f9		 mov	 edi, ecx

; 1239 :     Player* player = Player::GetCurrentPlayer();

  0000d	e8 00 00 00 00	 call	 ?GetCurrentPlayer@Player@@SAPAV1@XZ ; Player::GetCurrentPlayer

; 1240 : 
; 1241 :     if (player && player->GridMode() == 0) {

  00012	85 c0		 test	 eax, eax
  00014	74 14		 je	 SHORT $LN18@ShowGrid
  00016	83 b8 c8 00 00
	00 00		 cmp	 DWORD PTR [eax+200], 0
  0001d	75 0b		 jne	 SHORT $LN18@ShowGrid

; 1242 :         show       = 0;

  0001f	33 f6		 xor	 esi, esi

; 1243 :         grid_shown = false;

  00021	c6 87 bd 00 00
	00 00		 mov	 BYTE PTR [edi+189], 0
  00028	eb 03		 jmp	 SHORT $LN4@ShowGrid
$LN18@ShowGrid:
  0002a	8b 75 08	 mov	 esi, DWORD PTR _show$[ebp]
$LN4@ShowGrid:

; 1244 :     }
; 1245 : 
; 1246 :     ListIter<SimRegion> rgn = regions;

  0002d	8d 47 58	 lea	 eax, DWORD PTR [edi+88]
; File d:\programming\starshatter\trunk\foundationex\list.h

; 106  :    ListIter(List<T>& l)             : list(&l),     step(-1)      { }

  00030	c7 44 24 0c ff
	ff ff ff	 mov	 DWORD PTR _rgn$[esp+20], -1

; 108  :    int operator++() { return next() != 0; }

  00038	8d 4c 24 08	 lea	 ecx, DWORD PTR _rgn$[esp+16]

; 106  :    ListIter(List<T>& l)             : list(&l),     step(-1)      { }

  0003c	89 44 24 08	 mov	 DWORD PTR _rgn$[esp+16], eax

; 108  :    int operator++() { return next() != 0; }

  00040	e8 00 00 00 00	 call	 ?next@?$ListIter@VSimRegion@@@@QAEPAVSimRegion@@XZ ; ListIter<SimRegion>::next
  00045	85 c0		 test	 eax, eax
; File d:\programming\starshatter\trunk\stars45\sim.cpp

; 1247 :     while (++rgn) {

  00047	74 25		 je	 SHORT $LN3@ShowGrid
  00049	0f 1f 80 00 00
	00 00		 npad	 7
$LL2@ShowGrid:

; 1248 :         rgn->ShowGrid(show);

  00050	56		 push	 esi
; File d:\programming\starshatter\trunk\foundationex\list.h

; 110  :    T*  operator->() { return value();     }

  00051	8d 4c 24 0c	 lea	 ecx, DWORD PTR _rgn$[esp+20]
  00055	e8 00 00 00 00	 call	 ?value@?$ListIter@VSimRegion@@@@QAEPAVSimRegion@@XZ ; ListIter<SimRegion>::value
; File d:\programming\starshatter\trunk\stars45\sim.cpp

; 1248 :         rgn->ShowGrid(show);

  0005a	8b c8		 mov	 ecx, eax
  0005c	e8 00 00 00 00	 call	 ?ShowGrid@SimRegion@@QAEXH@Z ; SimRegion::ShowGrid
; File d:\programming\starshatter\trunk\foundationex\list.h

; 108  :    int operator++() { return next() != 0; }

  00061	8d 4c 24 08	 lea	 ecx, DWORD PTR _rgn$[esp+16]
  00065	e8 00 00 00 00	 call	 ?next@?$ListIter@VSimRegion@@@@QAEPAVSimRegion@@XZ ; ListIter<SimRegion>::next
  0006a	85 c0		 test	 eax, eax
; File d:\programming\starshatter\trunk\stars45\sim.cpp

; 1247 :     while (++rgn) {

  0006c	75 e2		 jne	 SHORT $LL2@ShowGrid
$LN3@ShowGrid:

; 1249 :     }
; 1250 : 
; 1251 :     grid_shown = show?true:false;

  0006e	85 f6		 test	 esi, esi
  00070	0f 95 c0	 setne	 al
  00073	88 87 bd 00 00
	00		 mov	 BYTE PTR [edi+189], al

; 1252 : }

  00079	5f		 pop	 edi
  0007a	5e		 pop	 esi
  0007b	8b e5		 mov	 esp, ebp
  0007d	5d		 pop	 ebp
  0007e	c2 04 00	 ret	 4
?ShowGrid@Sim@@QAEXH@Z ENDP				; Sim::ShowGrid
_TEXT	ENDS
; Function compile flags: /Ogtp
; File d:\programming\starshatter\trunk\stars45\sim.cpp
; File d:\programming\starshatter\trunk\foundationex\list.h
; File d:\programming\starshatter\trunk\stars45\sim.cpp
_TEXT	SEGMENT
_iff$ = 8						; size = 4
?TrackList@SimRegion@@QAEAAV?$List@VContact@@@@H@Z PROC	; SimRegion::TrackList
; _this$ = ecx

; 3559 : {

  00000	55		 push	 ebp
  00001	8b ec		 mov	 ebp, esp

; 3560 :     if (iff >= 0 && iff < 5)

  00003	8b 45 08	 mov	 eax, DWORD PTR _iff$[ebp]
  00006	83 f8 04	 cmp	 eax, 4
  00009	77 0d		 ja	 SHORT $LN3@TrackList

; 3561 :     return track_database[iff];

  0000b	8d 04 40	 lea	 eax, DWORD PTR [eax+eax*2]
  0000e	8d 40 2e	 lea	 eax, DWORD PTR [eax+46]
  00011	8d 04 81	 lea	 eax, DWORD PTR [ecx+eax*4]

; 3565 : }

  00014	5d		 pop	 ebp
  00015	c2 04 00	 ret	 4
$LN3@TrackList:

; 3563 :     static List<Contact> empty;

  00018	64 a1 00 00 00
	00		 mov	 eax, DWORD PTR fs:__tls_array
  0001e	8b 08		 mov	 ecx, DWORD PTR [eax]
  00020	a1 00 00 00 00	 mov	 eax, DWORD PTR ?$TSS0@?1??TrackList@SimRegion@@QAEAAV?$List@VContact@@@@H@Z@4HA
  00025	3b 81 00 00 00
	00		 cmp	 eax, DWORD PTR __Init_thread_epoch[ecx]
  0002b	7e 4b		 jle	 SHORT $LN2@TrackList
  0002d	68 00 00 00 00	 push	 OFFSET ?$TSS0@?1??TrackList@SimRegion@@QAEAAV?$List@VContact@@@@H@Z@4HA
  00032	e8 00 00 00 00	 call	 __Init_thread_header
  00037	83 c4 04	 add	 esp, 4
  0003a	83 3d 00 00 00
	00 ff		 cmp	 DWORD PTR ?$TSS0@?1??TrackList@SimRegion@@QAEAAV?$List@VContact@@@@H@Z@4HA, -1
  00041	75 35		 jne	 SHORT $LN2@TrackList
  00043	68 00 00 00 00	 push	 OFFSET ??__Fempty@?1??TrackList@SimRegion@@QAEAAV?$List@VContact@@@@H@Z@YAXXZ ; `SimRegion::TrackList'::`2'::`dynamic atexit destructor for 'empty''
; File d:\programming\starshatter\trunk\foundationex\list.h

; 52   :    List()   : items(0), extent(0), array(0) { }

  00048	c7 05 00 00 00
	00 00 00 00 00	 mov	 DWORD PTR ?empty@?1??TrackList@SimRegion@@QAEAAV?$List@VContact@@@@H@Z@4V3@A, 0
  00052	c7 05 04 00 00
	00 00 00 00 00	 mov	 DWORD PTR ?empty@?1??TrackList@SimRegion@@QAEAAV?$List@VContact@@@@H@Z@4V3@A+4, 0
  0005c	c7 05 08 00 00
	00 00 00 00 00	 mov	 DWORD PTR ?empty@?1??TrackList@SimRegion@@QAEAAV?$List@VContact@@@@H@Z@4V3@A+8, 0
; File d:\programming\starshatter\trunk\stars45\sim.cpp

; 3563 :     static List<Contact> empty;

  00066	e8 00 00 00 00	 call	 _atexit
  0006b	68 00 00 00 00	 push	 OFFSET ?$TSS0@?1??TrackList@SimRegion@@QAEAAV?$List@VContact@@@@H@Z@4HA
  00070	e8 00 00 00 00	 call	 __Init_thread_footer
  00075	83 c4 08	 add	 esp, 8
$LN2@TrackList:

; 3564 :     return empty;

  00078	b8 00 00 00 00	 mov	 eax, OFFSET ?empty@?1??TrackList@SimRegion@@QAEAAV?$List@VContact@@@@H@Z@4V3@A

; 3565 : }

  0007d	5d		 pop	 ebp
  0007e	c2 04 00	 ret	 4
?TrackList@SimRegion@@QAEAAV?$List@VContact@@@@H@Z ENDP	; SimRegion::TrackList
_TEXT	ENDS
; Function compile flags: /Ogtp
; File d:\programming\starshatter\trunk\stars45\sim.cpp
; File d:\programming\starshatter\trunk\foundationex\list.h
; File d:\programming\starshatter\trunk\stars45\sim.cpp
; File d:\programming\starshatter\trunk\foundationex\list.h
; File d:\programming\starshatter\trunk\stars45\sim.cpp
; File d:\programming\starshatter\trunk\foundationex\list.h
; File d:\programming\starshatter\trunk\foundationex\text.h
; File d:\programming\starshatter\trunk\foundationex\list.h
; File d:\programming\starshatter\trunk\foundationex\text.h
; File d:\programming\starshatter\trunk\stars45\sim.cpp
; File d:\programming\starshatter\trunk\foundationex\list.h
; File d:\programming\starshatter\trunk\stars45\sim.cpp
_TEXT	SEGMENT
_rgn$ = -8						; size = 8
_name$ = 8						; size = 4
?FindRegion@Sim@@QAEPAVSimRegion@@PBD@Z PROC		; Sim::FindRegion
; _this$ = ecx

; 1376 : {

  00000	55		 push	 ebp
  00001	8b ec		 mov	 ebp, esp
  00003	83 e4 f8	 and	 esp, -8			; fffffff8H
  00006	83 ec 0c	 sub	 esp, 12			; 0000000cH

; 1377 :     ListIter<SimRegion> rgn = regions;

  00009	8d 41 58	 lea	 eax, DWORD PTR [ecx+88]
; File d:\programming\starshatter\trunk\foundationex\list.h

; 106  :    ListIter(List<T>& l)             : list(&l),     step(-1)      { }

  0000c	c7 44 24 08 ff
	ff ff ff	 mov	 DWORD PTR _rgn$[esp+16], -1
; File d:\programming\starshatter\trunk\stars45\sim.cpp

; 1376 : {

  00014	56		 push	 esi
; File d:\programming\starshatter\trunk\foundationex\list.h

; 108  :    int operator++() { return next() != 0; }

  00015	8d 4c 24 08	 lea	 ecx, DWORD PTR _rgn$[esp+16]

; 106  :    ListIter(List<T>& l)             : list(&l),     step(-1)      { }

  00019	89 44 24 08	 mov	 DWORD PTR _rgn$[esp+16], eax

; 108  :    int operator++() { return next() != 0; }

  0001d	e8 00 00 00 00	 call	 ?next@?$ListIter@VSimRegion@@@@QAEPAVSimRegion@@XZ ; ListIter<SimRegion>::next
  00022	85 c0		 test	 eax, eax
; File d:\programming\starshatter\trunk\stars45\sim.cpp

; 1378 :     while (++rgn)

  00024	74 65		 je	 SHORT $LN3@FindRegion
  00026	8b 75 08	 mov	 esi, DWORD PTR _name$[ebp]
  00029	0f 1f 80 00 00
	00 00		 npad	 7
$LL2@FindRegion:
; File d:\programming\starshatter\trunk\foundationex\list.h

; 110  :    T*  operator->() { return value();     }

  00030	8d 4c 24 08	 lea	 ecx, DWORD PTR _rgn$[esp+16]
  00034	e8 00 00 00 00	 call	 ?value@?$ListIter@VSimRegion@@@@QAEPAVSimRegion@@XZ ; ListIter<SimRegion>::value
; File d:\programming\starshatter\trunk\foundationex\text.h

; 160  :    if (rep->sensitive)

  00039	8b 48 10	 mov	 ecx, DWORD PTR [eax+16]
  0003c	80 79 10 00	 cmp	 BYTE PTR [ecx+16], 0
  00040	74 2c		 je	 SHORT $LN15@FindRegion

; 161  :       return strcmp(sym, s);

  00042	8b 40 0c	 mov	 eax, DWORD PTR [eax+12]
  00045	8b ce		 mov	 ecx, esi
$LL22@FindRegion:
  00047	8a 10		 mov	 dl, BYTE PTR [eax]
  00049	3a 11		 cmp	 dl, BYTE PTR [ecx]
  0004b	75 1a		 jne	 SHORT $LN23@FindRegion
  0004d	84 d2		 test	 dl, dl
  0004f	74 12		 je	 SHORT $LN24@FindRegion
  00051	8a 50 01	 mov	 dl, BYTE PTR [eax+1]
  00054	3a 51 01	 cmp	 dl, BYTE PTR [ecx+1]
  00057	75 0e		 jne	 SHORT $LN23@FindRegion
  00059	83 c0 02	 add	 eax, 2
  0005c	83 c1 02	 add	 ecx, 2
  0005f	84 d2		 test	 dl, dl
  00061	75 e4		 jne	 SHORT $LL22@FindRegion
$LN24@FindRegion:
  00063	33 c0		 xor	 eax, eax
  00065	eb 13		 jmp	 SHORT $LN16@FindRegion
$LN23@FindRegion:
  00067	1b c0		 sbb	 eax, eax
  00069	83 c8 01	 or	 eax, 1
  0006c	eb 0c		 jmp	 SHORT $LN16@FindRegion
$LN15@FindRegion:

; 162  :    else
; 163  :       return _stricmp(sym, s);

  0006e	56		 push	 esi
  0006f	ff 70 0c	 push	 DWORD PTR [eax+12]
  00072	e8 00 00 00 00	 call	 __stricmp
  00077	83 c4 08	 add	 esp, 8
$LN16@FindRegion:
; File d:\programming\starshatter\trunk\foundationex\list.h

; 108  :    int operator++() { return next() != 0; }

  0007a	8d 4c 24 08	 lea	 ecx, DWORD PTR _rgn$[esp+16]
; File d:\programming\starshatter\trunk\foundationex\text.h

; 198  : inline int operator==(const Text& l, const char* r) { return l.compare(r) == 0; }

  0007e	85 c0		 test	 eax, eax
; File d:\programming\starshatter\trunk\stars45\sim.cpp

; 1379 :     if (rgn->name == name)

  00080	74 12		 je	 SHORT $LN19@FindRegion
; File d:\programming\starshatter\trunk\foundationex\list.h

; 108  :    int operator++() { return next() != 0; }

  00082	e8 00 00 00 00	 call	 ?next@?$ListIter@VSimRegion@@@@QAEPAVSimRegion@@XZ ; ListIter<SimRegion>::next
  00087	85 c0		 test	 eax, eax
; File d:\programming\starshatter\trunk\stars45\sim.cpp

; 1378 :     while (++rgn)

  00089	75 a5		 jne	 SHORT $LL2@FindRegion
$LN3@FindRegion:

; 1381 : 
; 1382 :     return 0;

  0008b	33 c0		 xor	 eax, eax

; 1383 : }

  0008d	5e		 pop	 esi
  0008e	8b e5		 mov	 esp, ebp
  00090	5d		 pop	 ebp
  00091	c2 04 00	 ret	 4
$LN19@FindRegion:

; 1380 :     return rgn.value();

  00094	e8 00 00 00 00	 call	 ?value@?$ListIter@VSimRegion@@@@QAEPAVSimRegion@@XZ ; ListIter<SimRegion>::value

; 1383 : }

  00099	5e		 pop	 esi
  0009a	8b e5		 mov	 esp, ebp
  0009c	5d		 pop	 ebp
  0009d	c2 04 00	 ret	 4
?FindRegion@Sim@@QAEPAVSimRegion@@PBD@Z ENDP		; Sim::FindRegion
_TEXT	ENDS
; Function compile flags: /Ogtp
; File d:\programming\starshatter\trunk\stars45\sim.cpp
; File d:\programming\starshatter\trunk\foundationex\list.h
; File d:\programming\starshatter\trunk\stars45\sim.cpp
; File d:\programming\starshatter\trunk\stars45\ship.h
; File d:\programming\starshatter\trunk\stars45\sim.cpp
; File d:\programming\starshatter\trunk\stars45\ship.h
; File d:\programming\starshatter\trunk\stars45\sim.cpp
; File d:\programming\starshatter\trunk\foundationex\list.h
; File d:\programming\starshatter\trunk\stars45\sim.cpp
; File d:\programming\starshatter\trunk\foundationex\list.h
; File d:\programming\starshatter\trunk\stars45\sim.cpp
; File d:\programming\starshatter\trunk\foundationex\list.h
; File d:\programming\starshatter\trunk\stars45\sim.cpp
_TEXT	SEGMENT
_this$1$ = -12						; size = 4
_iter$ = -8						; size = 8
___$ReturnUdt$ = 8					; size = 4
?GetMissionElements@Sim@@QAE?AV?$ListIter@VMissionElement@@@@XZ PROC ; Sim::GetMissionElements
; _this$ = ecx

; 2022 : {

  00000	55		 push	 ebp
  00001	8b ec		 mov	 ebp, esp
  00003	83 e4 f8	 and	 esp, -8			; fffffff8H
  00006	83 ec 0c	 sub	 esp, 12			; 0000000cH
  00009	53		 push	 ebx
  0000a	8b d9		 mov	 ebx, ecx
  0000c	56		 push	 esi
  0000d	57		 push	 edi
  0000e	89 5c 24 0c	 mov	 DWORD PTR _this$1$[esp+24], ebx

; 2023 :     mission_elements.destroy();

  00012	8d 8b ac 00 00
	00		 lea	 ecx, DWORD PTR [ebx+172]
  00018	e8 00 00 00 00	 call	 ?destroy@?$List@VMissionElement@@@@QAEXXZ ; List<MissionElement>::destroy

; 2024 : 
; 2025 :     ListIter<Element> iter = elements;

  0001d	8d 83 88 00 00
	00		 lea	 eax, DWORD PTR [ebx+136]
; File d:\programming\starshatter\trunk\foundationex\list.h

; 106  :    ListIter(List<T>& l)             : list(&l),     step(-1)      { }

  00023	c7 44 24 14 ff
	ff ff ff	 mov	 DWORD PTR _iter$[esp+28], -1

; 108  :    int operator++() { return next() != 0; }

  0002b	8d 4c 24 10	 lea	 ecx, DWORD PTR _iter$[esp+24]

; 106  :    ListIter(List<T>& l)             : list(&l),     step(-1)      { }

  0002f	89 44 24 10	 mov	 DWORD PTR _iter$[esp+24], eax

; 108  :    int operator++() { return next() != 0; }

  00033	e8 00 00 00 00	 call	 ?next@?$ListIter@VElement@@@@QAEPAVElement@@XZ ; ListIter<Element>::next
  00038	85 c0		 test	 eax, eax
; File d:\programming\starshatter\trunk\stars45\sim.cpp

; 2026 :     while (++iter) {

  0003a	74 79		 je	 SHORT $LN3@GetMission
  0003c	0f 1f 40 00	 npad	 4
$LL2@GetMission:

; 2027 :         Element* elem = iter.value();

  00040	8d 4c 24 10	 lea	 ecx, DWORD PTR _iter$[esp+24]
  00044	e8 00 00 00 00	 call	 ?value@?$ListIter@VElement@@@@QAEPAVElement@@XZ ; ListIter<Element>::value
  00049	8b d8		 mov	 ebx, eax

; 2028 : 
; 2029 :         int num_live_ships = 0;
; 2030 : 
; 2031 :         for (int i = 0; i < elem->NumShips(); i++) {

  0004b	33 f6		 xor	 esi, esi
  0004d	33 ff		 xor	 edi, edi
  0004f	39 73 38	 cmp	 DWORD PTR [ebx+56], esi
  00052	7e 23		 jle	 SHORT $LN5@GetMission
$LL6@GetMission:

; 2032 :             Ship* s = elem->GetShip(i+1);

  00054	46		 inc	 esi
  00055	8b cb		 mov	 ecx, ebx
  00057	56		 push	 esi
  00058	e8 00 00 00 00	 call	 ?GetShip@Element@@QAEPAVShip@@H@Z ; Element::GetShip

; 2034 :             if (s && !s->IsDying() && !s->IsDead())

  0005d	85 c0		 test	 eax, eax
  0005f	74 11		 je	 SHORT $LN4@GetMission
; File d:\programming\starshatter\trunk\stars45\ship.h

; 234  :     bool              IsDying()            const { return transition_type == TRANSITION_DEATH_SPIRAL; }

  00061	8b 80 60 04 00
	00		 mov	 eax, DWORD PTR [eax+1120]
  00067	83 f8 05	 cmp	 eax, 5
; File d:\programming\starshatter\trunk\stars45\sim.cpp

; 2034 :             if (s && !s->IsDying() && !s->IsDead())

  0006a	74 06		 je	 SHORT $LN4@GetMission
; File d:\programming\starshatter\trunk\stars45\ship.h

; 235  :     bool              IsDead()             const { return transition_type == TRANSITION_DEAD;         }

  0006c	83 f8 06	 cmp	 eax, 6
; File d:\programming\starshatter\trunk\stars45\sim.cpp

; 2034 :             if (s && !s->IsDying() && !s->IsDead())

  0006f	74 01		 je	 SHORT $LN4@GetMission

; 2035 :             num_live_ships++;

  00071	47		 inc	 edi
$LN4@GetMission:

; 2028 : 
; 2029 :         int num_live_ships = 0;
; 2030 : 
; 2031 :         for (int i = 0; i < elem->NumShips(); i++) {

  00072	3b 73 38	 cmp	 esi, DWORD PTR [ebx+56]
  00075	7c dd		 jl	 SHORT $LL6@GetMission
$LN5@GetMission:

; 2036 :         }
; 2037 : 
; 2038 :         if (elem->IsSquadron() || num_live_ships > 0) {

  00077	8b cb		 mov	 ecx, ebx
  00079	e8 00 00 00 00	 call	 ?IsSquadron@Element@@QBE_NXZ ; Element::IsSquadron
  0007e	84 c0		 test	 al, al
  00080	75 04		 jne	 SHORT $LN9@GetMission
  00082	85 ff		 test	 edi, edi
  00084	7e 1e		 jle	 SHORT $LN33@GetMission
$LN9@GetMission:

; 2039 :             MissionElement* msn_elem = CreateMissionElement(elem);

  00086	53		 push	 ebx
  00087	8b 5c 24 10	 mov	 ebx, DWORD PTR _this$1$[esp+28]
  0008b	8b cb		 mov	 ecx, ebx
  0008d	e8 00 00 00 00	 call	 ?CreateMissionElement@Sim@@IAEPAVMissionElement@@PAVElement@@@Z ; Sim::CreateMissionElement

; 2040 : 
; 2041 :             if (msn_elem)

  00092	85 c0		 test	 eax, eax
  00094	74 12		 je	 SHORT $LN10@GetMission

; 2042 :             mission_elements.append(msn_elem);

  00096	50		 push	 eax
  00097	8d 8b ac 00 00
	00		 lea	 ecx, DWORD PTR [ebx+172]
  0009d	e8 00 00 00 00	 call	 ?append@?$List@VMissionElement@@@@QAEXPBVMissionElement@@@Z ; List<MissionElement>::append
  000a2	eb 04		 jmp	 SHORT $LN10@GetMission
$LN33@GetMission:
  000a4	8b 5c 24 0c	 mov	 ebx, DWORD PTR _this$1$[esp+24]
$LN10@GetMission:
; File d:\programming\starshatter\trunk\foundationex\list.h

; 108  :    int operator++() { return next() != 0; }

  000a8	8d 4c 24 10	 lea	 ecx, DWORD PTR _iter$[esp+24]
  000ac	e8 00 00 00 00	 call	 ?next@?$ListIter@VElement@@@@QAEPAVElement@@XZ ; ListIter<Element>::next
  000b1	85 c0		 test	 eax, eax
; File d:\programming\starshatter\trunk\stars45\sim.cpp

; 2026 :     while (++iter) {

  000b3	75 8b		 jne	 SHORT $LL2@GetMission
$LN3@GetMission:
; File d:\programming\starshatter\trunk\foundationex\list.h

; 106  :    ListIter(List<T>& l)             : list(&l),     step(-1)      { }

  000b5	8b 45 08	 mov	 eax, DWORD PTR ___$ReturnUdt$[ebp]
  000b8	8d 8b ac 00 00
	00		 lea	 ecx, DWORD PTR [ebx+172]
; File d:\programming\starshatter\trunk\stars45\sim.cpp

; 2047 : }

  000be	5f		 pop	 edi
  000bf	5e		 pop	 esi
  000c0	5b		 pop	 ebx
; File d:\programming\starshatter\trunk\foundationex\list.h

; 106  :    ListIter(List<T>& l)             : list(&l),     step(-1)      { }

  000c1	89 08		 mov	 DWORD PTR [eax], ecx
  000c3	c7 40 04 ff ff
	ff ff		 mov	 DWORD PTR [eax+4], -1
; File d:\programming\starshatter\trunk\stars45\sim.cpp

; 2047 : }

  000ca	8b e5		 mov	 esp, ebp
  000cc	5d		 pop	 ebp
  000cd	c2 04 00	 ret	 4
?GetMissionElements@Sim@@QAE?AV?$ListIter@VMissionElement@@@@XZ ENDP ; Sim::GetMissionElements
_TEXT	ENDS
; Function compile flags: /Ogtp
; File d:\programming\starshatter\trunk\stars45\sim.cpp
_TEXT	SEGMENT
_h$1$ = -4						; size = 4
?FormatGameTime@@YAPBDXZ PROC				; FormatGameTime

; 3822 : {

  00000	55		 push	 ebp
  00001	8b ec		 mov	 ebp, esp
  00003	51		 push	 ecx
  00004	53		 push	 ebx
  00005	56		 push	 esi
  00006	57		 push	 edi

; 3823 :     static char txt[64];
; 3824 : 
; 3825 :     int t = Game::GameTime();

  00007	e8 00 00 00 00	 call	 ?GameTime@Game@@SAKXZ	; Game::GameTime
  0000c	8b d8		 mov	 ebx, eax

; 3826 : 
; 3827 :     int h = ( t                        / 3600000);

  0000e	b8 59 be 90 4a	 mov	 eax, 1250999897		; 4a90be59H
  00013	f7 eb		 imul	 ebx

; 3828 :     int m = ((t - h*3600000)           /   60000);

  00015	8b cb		 mov	 ecx, ebx
  00017	c1 fa 14	 sar	 edx, 20			; 00000014H
  0001a	8b f2		 mov	 esi, edx
  0001c	c1 ee 1f	 shr	 esi, 31			; 0000001fH
  0001f	03 f2		 add	 esi, edx
  00021	69 c6 80 ee 36
	00		 imul	 eax, esi, 3600000
  00027	89 75 fc	 mov	 DWORD PTR _h$1$[ebp], esi
  0002a	2b c8		 sub	 ecx, eax
  0002c	b8 73 b2 e7 45	 mov	 eax, 1172812403		; 45e7b273H
  00031	f7 e9		 imul	 ecx

; 3829 :     int s = ((t - h*3600000 - m*60000) /    1000);

  00033	8b c6		 mov	 eax, esi
  00035	8b cb		 mov	 ecx, ebx
  00037	c1 e0 04	 shl	 eax, 4
  0003a	c1 fa 0e	 sar	 edx, 14			; 0000000eH
  0003d	2b c6		 sub	 eax, esi
  0003f	8b fa		 mov	 edi, edx
  00041	c1 ef 1f	 shr	 edi, 31			; 0000001fH
  00044	03 fa		 add	 edi, edx
  00046	8d 34 87	 lea	 esi, DWORD PTR [edi+eax*4]
  00049	69 c6 60 ea 00
	00		 imul	 eax, esi, 60000
  0004f	2b c8		 sub	 ecx, eax
  00051	b8 d3 4d 62 10	 mov	 eax, 274877907		; 10624dd3H
  00056	f7 e9		 imul	 ecx

; 3830 :     int e = ( t - h*3600000 - m*60000 - s*1000);

  00058	8b c6		 mov	 eax, esi
  0005a	c1 fa 06	 sar	 edx, 6
  0005d	c1 e0 04	 shl	 eax, 4
  00060	8b ca		 mov	 ecx, edx
  00062	c1 e9 1f	 shr	 ecx, 31			; 0000001fH
  00065	2b c6		 sub	 eax, esi
  00067	03 ca		 add	 ecx, edx
  00069	8d 04 81	 lea	 eax, DWORD PTR [ecx+eax*4]
  0006c	69 c0 e8 03 00
	00		 imul	 eax, eax, 1000
  00072	2b d8		 sub	 ebx, eax

; 3831 : 
; 3832 :     if (h > 0)

  00074	8b 45 fc	 mov	 eax, DWORD PTR _h$1$[ebp]

; 3833 :     sprintf_s(txt, "%02d:%02d:%02d.%03d", h,m,s,e);

  00077	53		 push	 ebx
  00078	51		 push	 ecx
  00079	57		 push	 edi
  0007a	85 c0		 test	 eax, eax
  0007c	7e 1f		 jle	 SHORT $LN2@FormatGame
  0007e	50		 push	 eax
  0007f	68 00 00 00 00	 push	 OFFSET ??_C@_0BE@MNIJIMLO@?$CF02d?3?$CF02d?3?$CF02d?4?$CF03d?$AA@
  00084	68 00 00 00 00	 push	 OFFSET ?txt@?1??FormatGameTime@@YAPBDXZ@4PADA
  00089	e8 00 00 00 00	 call	 ??$sprintf_s@$0EA@@@YAHAAY0EA@DPBDZZ ; sprintf_s<64>
  0008e	83 c4 18	 add	 esp, 24			; 00000018H

; 3836 : 
; 3837 :     return txt;

  00091	b8 00 00 00 00	 mov	 eax, OFFSET ?txt@?1??FormatGameTime@@YAPBDXZ@4PADA

; 3838 : }

  00096	5f		 pop	 edi
  00097	5e		 pop	 esi
  00098	5b		 pop	 ebx
  00099	8b e5		 mov	 esp, ebp
  0009b	5d		 pop	 ebp
  0009c	c3		 ret	 0
$LN2@FormatGame:

; 3834 :     else
; 3835 :     sprintf_s(txt, "%02d:%02d.%03d", m,s,e);

  0009d	68 00 00 00 00	 push	 OFFSET ??_C@_0P@GCEINJHL@?$CF02d?3?$CF02d?4?$CF03d?$AA@
  000a2	68 00 00 00 00	 push	 OFFSET ?txt@?1??FormatGameTime@@YAPBDXZ@4PADA
  000a7	e8 00 00 00 00	 call	 ??$sprintf_s@$0EA@@@YAHAAY0EA@DPBDZZ ; sprintf_s<64>
  000ac	83 c4 14	 add	 esp, 20			; 00000014H

; 3836 : 
; 3837 :     return txt;

  000af	b8 00 00 00 00	 mov	 eax, OFFSET ?txt@?1??FormatGameTime@@YAPBDXZ@4PADA

; 3838 : }

  000b4	5f		 pop	 edi
  000b5	5e		 pop	 esi
  000b6	5b		 pop	 ebx
  000b7	8b e5		 mov	 esp, ebp
  000b9	5d		 pop	 ebp
  000ba	c3		 ret	 0
?FormatGameTime@@YAPBDXZ ENDP				; FormatGameTime
_TEXT	ENDS
; Function compile flags: /Ogtp
; File d:\programming\starshatter\trunk\stars45\sim.cpp
; File d:\programming\starshatter\trunk\stars45\mission.h
; File d:\programming\starshatter\trunk\foundationex\list.h
; File d:\programming\starshatter\trunk\stars45\sim.cpp
; File d:\programming\starshatter\trunk\foundationex\list.h
; File d:\programming\starshatter\trunk\stars45\sim.cpp
; File d:\programming\starshatter\trunk\foundationex\list.h
; File d:\programming\starshatter\trunk\stars45\sim.cpp
_TEXT	SEGMENT
_iter$1 = -8						; size = 8
_name$ = 8						; size = 4
?FindOrbitalBody@Sim@@QAEPAVOrbital@@PBD@Z PROC		; Sim::FindOrbitalBody
; _this$ = ecx

; 1103 : {

  00000	55		 push	 ebp
  00001	8b ec		 mov	 ebp, esp
  00003	83 e4 f8	 and	 esp, -8			; fffffff8H

; 1104 :     Orbital* body = 0;
; 1105 : 
; 1106 :     if (mission) {

  00006	8b 81 c0 00 00
	00		 mov	 eax, DWORD PTR [ecx+192]
  0000c	83 ec 08	 sub	 esp, 8
  0000f	56		 push	 esi
  00010	33 f6		 xor	 esi, esi
  00012	57		 push	 edi
  00013	85 c0		 test	 eax, eax
  00015	74 45		 je	 SHORT $LN18@FindOrbita
; File d:\programming\starshatter\trunk\stars45\mission.h

; 141  :     List<StarSystem>&    GetSystemList()       { return system_list;  }

  00017	05 e0 00 00 00	 add	 eax, 224		; 000000e0H
; File d:\programming\starshatter\trunk\foundationex\list.h

; 106  :    ListIter(List<T>& l)             : list(&l),     step(-1)      { }

  0001c	c7 44 24 0c ff
	ff ff ff	 mov	 DWORD PTR _iter$1[esp+20], -1

; 108  :    int operator++() { return next() != 0; }

  00024	8d 4c 24 08	 lea	 ecx, DWORD PTR _iter$1[esp+16]

; 106  :    ListIter(List<T>& l)             : list(&l),     step(-1)      { }

  00028	89 44 24 08	 mov	 DWORD PTR _iter$1[esp+16], eax

; 108  :    int operator++() { return next() != 0; }

  0002c	e8 00 00 00 00	 call	 ?next@?$ListIter@VStarSystem@@@@QAEPAVStarSystem@@XZ ; ListIter<StarSystem>::next
  00031	85 c0		 test	 eax, eax
; File d:\programming\starshatter\trunk\stars45\sim.cpp

; 1108 :         while (++iter && !body) {

  00033	74 27		 je	 SHORT $LN18@FindOrbita
  00035	8b 7d 08	 mov	 edi, DWORD PTR _name$[ebp]
$LL2@FindOrbita:
  00038	85 f6		 test	 esi, esi
  0003a	75 20		 jne	 SHORT $LN18@FindOrbita

; 1109 :             StarSystem* sys = iter.value();

  0003c	8d 4c 24 08	 lea	 ecx, DWORD PTR _iter$1[esp+16]
  00040	e8 00 00 00 00	 call	 ?value@?$ListIter@VStarSystem@@@@QAEPAVStarSystem@@XZ ; ListIter<StarSystem>::value

; 1110 :             body = sys->FindOrbital(name);

  00045	57		 push	 edi
  00046	8b c8		 mov	 ecx, eax
  00048	e8 00 00 00 00	 call	 ?FindOrbital@StarSystem@@QAEPAVOrbital@@PBD@Z ; StarSystem::FindOrbital
; File d:\programming\starshatter\trunk\foundationex\list.h

; 108  :    int operator++() { return next() != 0; }

  0004d	8d 4c 24 08	 lea	 ecx, DWORD PTR _iter$1[esp+16]
; File d:\programming\starshatter\trunk\stars45\sim.cpp

; 1110 :             body = sys->FindOrbital(name);

  00051	8b f0		 mov	 esi, eax
; File d:\programming\starshatter\trunk\foundationex\list.h

; 108  :    int operator++() { return next() != 0; }

  00053	e8 00 00 00 00	 call	 ?next@?$ListIter@VStarSystem@@@@QAEPAVStarSystem@@XZ ; ListIter<StarSystem>::next
  00058	85 c0		 test	 eax, eax
; File d:\programming\starshatter\trunk\stars45\sim.cpp

; 1108 :         while (++iter && !body) {

  0005a	75 dc		 jne	 SHORT $LL2@FindOrbita
$LN18@FindOrbita:

; 1111 :         }
; 1112 :     }
; 1113 : 
; 1114 :     return body;
; 1115 : }

  0005c	5f		 pop	 edi
  0005d	8b c6		 mov	 eax, esi
  0005f	5e		 pop	 esi
  00060	8b e5		 mov	 esp, ebp
  00062	5d		 pop	 ebp
  00063	c2 04 00	 ret	 4
?FindOrbitalBody@Sim@@QAEPAVOrbital@@PBD@Z ENDP		; Sim::FindOrbitalBody
_TEXT	ENDS
; Function compile flags: /Ogtp
; File d:\programming\starshatter\trunk\stars45\sim.cpp
_TEXT	SEGMENT
?MissionClock@Sim@@QBENXZ PROC				; Sim::MissionClock
; _this$ = ecx

; 1922 : {

  00000	56		 push	 esi
  00001	8b f1		 mov	 esi, ecx

; 1923 :     return (Game::GameTime() - start_time) / 1000.0;

  00003	e8 00 00 00 00	 call	 ?GameTime@Game@@SAKXZ	; Game::GameTime
  00008	2b 86 c8 00 00
	00		 sub	 eax, DWORD PTR [esi+200]
  0000e	5e		 pop	 esi
  0000f	66 0f 6e c0	 movd	 xmm0, eax
  00013	f3 0f e6 c0	 cvtdq2pd xmm0, xmm0
  00017	c1 e8 1f	 shr	 eax, 31			; 0000001fH
  0001a	f2 0f 58 04 c5
	00 00 00 00	 addsd	 xmm0, QWORD PTR __xmm@41f00000000000000000000000000000[eax*8]
  00023	f2 0f 5e 05 00
	00 00 00	 divsd	 xmm0, QWORD PTR __real@408f400000000000

; 1924 : }

  0002b	c3		 ret	 0
?MissionClock@Sim@@QBENXZ ENDP				; Sim::MissionClock
_TEXT	ENDS
; Function compile flags: /Ogtp
; File d:\programming\starshatter\trunk\stars45\sim.cpp
; File d:\programming\starshatter\trunk\stars45\mission.h
; File d:\programming\starshatter\trunk\stars45\sim.cpp
; File d:\programming\starshatter\trunk\foundationex\list.h
; File d:\programming\starshatter\trunk\stars45\sim.cpp
_TEXT	SEGMENT
?GetSystemList@Sim@@QAEAAV?$List@VStarSystem@@@@XZ PROC	; Sim::GetSystemList
; _this$ = ecx

; 1265 :     if (mission)

  00000	8b 81 c0 00 00
	00		 mov	 eax, DWORD PTR [ecx+192]
  00006	85 c0		 test	 eax, eax
  00008	74 06		 je	 SHORT $LN3@GetSystemL
; File d:\programming\starshatter\trunk\stars45\mission.h

; 141  :     List<StarSystem>&    GetSystemList()       { return system_list;  }

  0000a	05 e0 00 00 00	 add	 eax, 224		; 000000e0H
; File d:\programming\starshatter\trunk\stars45\sim.cpp

; 1270 : }

  0000f	c3		 ret	 0
$LN3@GetSystemL:

; 1268 :     static List<StarSystem> dummy_system_list;

  00010	64 a1 00 00 00
	00		 mov	 eax, DWORD PTR fs:__tls_array
  00016	8b 08		 mov	 ecx, DWORD PTR [eax]
  00018	a1 00 00 00 00	 mov	 eax, DWORD PTR ?$TSS0@?1??GetSystemList@Sim@@QAEAAV?$List@VStarSystem@@@@XZ@4HA
  0001d	3b 81 00 00 00
	00		 cmp	 eax, DWORD PTR __Init_thread_epoch[ecx]
  00023	7e 4b		 jle	 SHORT $LN2@GetSystemL
  00025	68 00 00 00 00	 push	 OFFSET ?$TSS0@?1??GetSystemList@Sim@@QAEAAV?$List@VStarSystem@@@@XZ@4HA
  0002a	e8 00 00 00 00	 call	 __Init_thread_header
  0002f	83 c4 04	 add	 esp, 4
  00032	83 3d 00 00 00
	00 ff		 cmp	 DWORD PTR ?$TSS0@?1??GetSystemList@Sim@@QAEAAV?$List@VStarSystem@@@@XZ@4HA, -1
  00039	75 35		 jne	 SHORT $LN2@GetSystemL
  0003b	68 00 00 00 00	 push	 OFFSET ??__Fdummy_system_list@?1??GetSystemList@Sim@@QAEAAV?$List@VStarSystem@@@@XZ@YAXXZ ; `Sim::GetSystemList'::`2'::`dynamic atexit destructor for 'dummy_system_list''
; File d:\programming\starshatter\trunk\foundationex\list.h

; 52   :    List()   : items(0), extent(0), array(0) { }

  00040	c7 05 00 00 00
	00 00 00 00 00	 mov	 DWORD PTR ?dummy_system_list@?1??GetSystemList@Sim@@QAEAAV?$List@VStarSystem@@@@XZ@4V3@A, 0
  0004a	c7 05 04 00 00
	00 00 00 00 00	 mov	 DWORD PTR ?dummy_system_list@?1??GetSystemList@Sim@@QAEAAV?$List@VStarSystem@@@@XZ@4V3@A+4, 0
  00054	c7 05 08 00 00
	00 00 00 00 00	 mov	 DWORD PTR ?dummy_system_list@?1??GetSystemList@Sim@@QAEAAV?$List@VStarSystem@@@@XZ@4V3@A+8, 0
; File d:\programming\starshatter\trunk\stars45\sim.cpp

; 1268 :     static List<StarSystem> dummy_system_list;

  0005e	e8 00 00 00 00	 call	 _atexit
  00063	68 00 00 00 00	 push	 OFFSET ?$TSS0@?1??GetSystemList@Sim@@QAEAAV?$List@VStarSystem@@@@XZ@4HA
  00068	e8 00 00 00 00	 call	 __Init_thread_footer
  0006d	83 c4 08	 add	 esp, 8
$LN2@GetSystemL:

; 1269 :     return dummy_system_list;

  00070	b8 00 00 00 00	 mov	 eax, OFFSET ?dummy_system_list@?1??GetSystemList@Sim@@QAEAAV?$List@VStarSystem@@@@XZ@4V3@A

; 1270 : }

  00075	c3		 ret	 0
?GetSystemList@Sim@@QAEAAV?$List@VStarSystem@@@@XZ ENDP	; Sim::GetSystemList
_TEXT	ENDS
; Function compile flags: /Ogtp
; File d:\programming\starshatter\trunk\stars45\sim.cpp
; File d:\programming\starshatter\trunk\stars45\simobject.h
; File d:\programming\starshatter\trunk\stars45\sim.cpp
_TEXT	SEGMENT
_ship$ = 8						; size = 4
_carrier$ = 12						; size = 4
_deck$ = 16						; size = 4
?NetDockShip@Sim@@QAEXPAVShip@@0PAVFlightDeck@@@Z PROC	; Sim::NetDockShip
; _this$dead$ = ecx

; 1069 : {

  00000	55		 push	 ebp
  00001	8b ec		 mov	 ebp, esp
  00003	56		 push	 esi
  00004	8b 75 08	 mov	 esi, DWORD PTR _ship$[ebp]
  00007	8b 06		 mov	 eax, DWORD PTR [esi]
  00009	8b 80 90 00 00
	00		 mov	 eax, DWORD PTR [eax+144]
  0000f	3d 00 00 00 00	 cmp	 eax, OFFSET ?GetRegion@SimObject@@UBEPAVSimRegion@@XZ ; SimObject::GetRegion
  00014	75 1b		 jne	 SHORT $LN8@NetDockShi
; File d:\programming\starshatter\trunk\stars45\simobject.h

; 76   :     virtual SimRegion*   GetRegion()                const { return region; }

  00016	8b 86 c8 01 00
	00		 mov	 eax, DWORD PTR [esi+456]
$LN4@NetDockShi:
; File d:\programming\starshatter\trunk\stars45\sim.cpp

; 1071 :     if (rgn)

  0001c	85 c0		 test	 eax, eax
  0001e	74 0c		 je	 SHORT $LN2@NetDockShi

; 1072 :     rgn->NetDockShip(ship, carrier, deck);

  00020	ff 75 10	 push	 DWORD PTR _deck$[ebp]
  00023	ff 75 0c	 push	 DWORD PTR _carrier$[ebp]
  00026	56		 push	 esi
  00027	e8 00 00 00 00	 call	 ?NetDockShip@SimRegion@@IAEXPAVShip@@0PAVFlightDeck@@@Z ; SimRegion::NetDockShip
$LN2@NetDockShi:
  0002c	5e		 pop	 esi

; 1073 : }

  0002d	5d		 pop	 ebp
  0002e	c2 0c 00	 ret	 12			; 0000000cH
$LN8@NetDockShi:
  00031	8b ce		 mov	 ecx, esi

; 1070 :     SimRegion* rgn = ship->GetRegion();

  00033	ff d0		 call	 eax
  00035	eb e5		 jmp	 SHORT $LN4@NetDockShi
?NetDockShip@Sim@@QAEXPAVShip@@0PAVFlightDeck@@@Z ENDP	; Sim::NetDockShip
_TEXT	ENDS
; Function compile flags: /Ogtp
; File d:\programming\starshatter\trunk\stars45\sim.cpp
; File d:\programming\starshatter\trunk\ngenex\geometry.h
; File d:\programming\starshatter\trunk\stars45\starsystem.h
; File d:\programming\starshatter\trunk\stars45\sim.cpp
_TEXT	SEGMENT
tv167 = -8						; size = 8
_r$ = 8							; size = 4
??MSimRegion@@QBEHABV0@@Z PROC				; SimRegion::operator<
; _this$ = ecx

; 2317 : {

  00000	55		 push	 ebp
  00001	8b ec		 mov	 ebp, esp
  00003	83 e4 f8	 and	 esp, -8			; fffffff8H

; 2318 :     return (orbital_region && r.orbital_region && *orbital_region <  *r.orbital_region);

  00006	8b 49 1c	 mov	 ecx, DWORD PTR [ecx+28]
  00009	83 ec 0c	 sub	 esp, 12			; 0000000cH
  0000c	56		 push	 esi
  0000d	85 c9		 test	 ecx, ecx
  0000f	74 7b		 je	 SHORT $LN3@operator
  00011	8b 45 08	 mov	 eax, DWORD PTR _r$[ebp]
  00014	8b 70 1c	 mov	 esi, DWORD PTR [eax+28]
  00017	85 f6		 test	 esi, esi
  00019	74 71		 je	 SHORT $LN3@operator
; File d:\programming\starshatter\trunk\ngenex\geometry.h

; 241  :     double   length()                const { return sqrt(x*x+y*y+z*z); }

  0001b	f2 0f 10 51 68	 movsd	 xmm2, QWORD PTR [ecx+104]
  00020	f2 0f 10 41 60	 movsd	 xmm0, QWORD PTR [ecx+96]
  00025	f2 0f 10 49 70	 movsd	 xmm1, QWORD PTR [ecx+112]
  0002a	f2 0f 59 c0	 mulsd	 xmm0, xmm0
  0002e	f2 0f 59 d2	 mulsd	 xmm2, xmm2
  00032	f2 0f 59 c9	 mulsd	 xmm1, xmm1
  00036	f2 0f 58 c2	 addsd	 xmm0, xmm2
  0003a	f2 0f 58 c1	 addsd	 xmm0, xmm1
  0003e	e8 00 00 00 00	 call	 __libm_sse2_sqrt_precise
  00043	f2 0f 10 4e 60	 movsd	 xmm1, QWORD PTR [esi+96]
  00048	f2 0f 11 44 24
	08		 movsd	 QWORD PTR tv167[esp+16], xmm0
  0004e	f2 0f 10 46 68	 movsd	 xmm0, QWORD PTR [esi+104]
  00053	f2 0f 59 c0	 mulsd	 xmm0, xmm0
  00057	f2 0f 59 c9	 mulsd	 xmm1, xmm1
  0005b	f2 0f 58 c8	 addsd	 xmm1, xmm0
  0005f	f2 0f 10 46 70	 movsd	 xmm0, QWORD PTR [esi+112]
  00064	f2 0f 59 c0	 mulsd	 xmm0, xmm0
  00068	f2 0f 58 c1	 addsd	 xmm0, xmm1
  0006c	e8 00 00 00 00	 call	 __libm_sse2_sqrt_precise
; File d:\programming\starshatter\trunk\stars45\starsystem.h

; 215  :     int operator <  (const Orbital& o) const { return loc.length() <  o.loc.length(); }

  00071	33 c0		 xor	 eax, eax
  00073	66 0f 2f 44 24
	08		 comisd	 xmm0, QWORD PTR tv167[esp+16]
  00079	0f 97 c0	 seta	 al
; File d:\programming\starshatter\trunk\stars45\sim.cpp

; 2318 :     return (orbital_region && r.orbital_region && *orbital_region <  *r.orbital_region);

  0007c	85 c0		 test	 eax, eax
  0007e	74 0c		 je	 SHORT $LN3@operator
  00080	b8 01 00 00 00	 mov	 eax, 1

; 2319 : }

  00085	5e		 pop	 esi
  00086	8b e5		 mov	 esp, ebp
  00088	5d		 pop	 ebp
  00089	c2 04 00	 ret	 4
$LN3@operator:

; 2318 :     return (orbital_region && r.orbital_region && *orbital_region <  *r.orbital_region);

  0008c	33 c0		 xor	 eax, eax

; 2319 : }

  0008e	5e		 pop	 esi
  0008f	8b e5		 mov	 esp, ebp
  00091	5d		 pop	 ebp
  00092	c2 04 00	 ret	 4
??MSimRegion@@QBEHABV0@@Z ENDP				; SimRegion::operator<
_TEXT	ENDS
; Function compile flags: /Ogtp
; File d:\programming\starshatter\trunk\stars45\sim.cpp
; File d:\programming\starshatter\trunk\ngenex\geometry.h
; File d:\programming\starshatter\trunk\stars45\starsystem.h
; File d:\programming\starshatter\trunk\stars45\sim.cpp
_TEXT	SEGMENT
tv167 = -8						; size = 8
_r$ = 8							; size = 4
??NSimRegion@@QBEHABV0@@Z PROC				; SimRegion::operator<=
; _this$ = ecx

; 2323 : {

  00000	55		 push	 ebp
  00001	8b ec		 mov	 ebp, esp
  00003	83 e4 f8	 and	 esp, -8			; fffffff8H

; 2324 :     return (orbital_region && r.orbital_region && *orbital_region <= *r.orbital_region);

  00006	8b 49 1c	 mov	 ecx, DWORD PTR [ecx+28]
  00009	83 ec 0c	 sub	 esp, 12			; 0000000cH
  0000c	56		 push	 esi
  0000d	85 c9		 test	 ecx, ecx
  0000f	74 7b		 je	 SHORT $LN3@operator
  00011	8b 45 08	 mov	 eax, DWORD PTR _r$[ebp]
  00014	8b 70 1c	 mov	 esi, DWORD PTR [eax+28]
  00017	85 f6		 test	 esi, esi
  00019	74 71		 je	 SHORT $LN3@operator
; File d:\programming\starshatter\trunk\ngenex\geometry.h

; 241  :     double   length()                const { return sqrt(x*x+y*y+z*z); }

  0001b	f2 0f 10 51 68	 movsd	 xmm2, QWORD PTR [ecx+104]
  00020	f2 0f 10 41 60	 movsd	 xmm0, QWORD PTR [ecx+96]
  00025	f2 0f 10 49 70	 movsd	 xmm1, QWORD PTR [ecx+112]
  0002a	f2 0f 59 c0	 mulsd	 xmm0, xmm0
  0002e	f2 0f 59 d2	 mulsd	 xmm2, xmm2
  00032	f2 0f 59 c9	 mulsd	 xmm1, xmm1
  00036	f2 0f 58 c2	 addsd	 xmm0, xmm2
  0003a	f2 0f 58 c1	 addsd	 xmm0, xmm1
  0003e	e8 00 00 00 00	 call	 __libm_sse2_sqrt_precise
  00043	f2 0f 10 4e 60	 movsd	 xmm1, QWORD PTR [esi+96]
  00048	f2 0f 11 44 24
	08		 movsd	 QWORD PTR tv167[esp+16], xmm0
  0004e	f2 0f 10 46 68	 movsd	 xmm0, QWORD PTR [esi+104]
  00053	f2 0f 59 c0	 mulsd	 xmm0, xmm0
  00057	f2 0f 59 c9	 mulsd	 xmm1, xmm1
  0005b	f2 0f 58 c8	 addsd	 xmm1, xmm0
  0005f	f2 0f 10 46 70	 movsd	 xmm0, QWORD PTR [esi+112]
  00064	f2 0f 59 c0	 mulsd	 xmm0, xmm0
  00068	f2 0f 58 c1	 addsd	 xmm0, xmm1
  0006c	e8 00 00 00 00	 call	 __libm_sse2_sqrt_precise
; File d:\programming\starshatter\trunk\stars45\starsystem.h

; 216  :     int operator <= (const Orbital& o) const { return loc.length() <= o.loc.length(); }

  00071	33 c0		 xor	 eax, eax
  00073	66 0f 2f 44 24
	08		 comisd	 xmm0, QWORD PTR tv167[esp+16]
  00079	0f 93 c0	 setae	 al
; File d:\programming\starshatter\trunk\stars45\sim.cpp

; 2324 :     return (orbital_region && r.orbital_region && *orbital_region <= *r.orbital_region);

  0007c	85 c0		 test	 eax, eax
  0007e	74 0c		 je	 SHORT $LN3@operator
  00080	b8 01 00 00 00	 mov	 eax, 1

; 2325 : }

  00085	5e		 pop	 esi
  00086	8b e5		 mov	 esp, ebp
  00088	5d		 pop	 ebp
  00089	c2 04 00	 ret	 4
$LN3@operator:

; 2324 :     return (orbital_region && r.orbital_region && *orbital_region <= *r.orbital_region);

  0008c	33 c0		 xor	 eax, eax

; 2325 : }

  0008e	5e		 pop	 esi
  0008f	8b e5		 mov	 esp, ebp
  00091	5d		 pop	 ebp
  00092	c2 04 00	 ret	 4
??NSimRegion@@QBEHABV0@@Z ENDP				; SimRegion::operator<=
_TEXT	ENDS
; Function compile flags: /Ogtp
; File d:\programming\starshatter\trunk\stars45\sim.cpp
_TEXT	SEGMENT
_object$ = 8						; size = 4
?FindNearestSpaceRegion@Sim@@QAEPAVSimRegion@@PAVSimObject@@@Z PROC ; Sim::FindNearestSpaceRegion
; _this$ = ecx

; 1400 : {

  00000	55		 push	 ebp
  00001	8b ec		 mov	 ebp, esp
  00003	51		 push	 ecx

; 1401 :     return FindNearestRegion(object, REAL_SPACE);

  00004	6a 00		 push	 0
  00006	ff 75 08	 push	 DWORD PTR _object$[ebp]
  00009	e8 00 00 00 00	 call	 ?FindNearestRegion@Sim@@QAEPAVSimRegion@@PAVSimObject@@H@Z ; Sim::FindNearestRegion
  0000e	59		 pop	 ecx

; 1402 : }

  0000f	5d		 pop	 ebp
  00010	c2 04 00	 ret	 4
?FindNearestSpaceRegion@Sim@@QAEPAVSimRegion@@PAVSimObject@@@Z ENDP ; Sim::FindNearestSpaceRegion
_TEXT	ENDS
; Function compile flags: /Ogtp
; File d:\programming\starshatter\trunk\stars45\sim.cpp
_TEXT	SEGMENT
?IsActive@Sim@@QBE_NXZ PROC				; Sim::IsActive
; _this$ = ecx

; 309  :     return mission && mission->IsActive();

  00000	8b 81 c0 00 00
	00		 mov	 eax, DWORD PTR [ecx+192]
  00006	85 c0		 test	 eax, eax
  00008	74 0c		 je	 SHORT $LN3@IsActive
  0000a	80 b8 b9 00 00
	00 00		 cmp	 BYTE PTR [eax+185], 0
  00011	74 03		 je	 SHORT $LN3@IsActive
  00013	b0 01		 mov	 al, 1

; 310  : }

  00015	c3		 ret	 0
$LN3@IsActive:

; 309  :     return mission && mission->IsActive();

  00016	32 c0		 xor	 al, al

; 310  : }

  00018	c3		 ret	 0
?IsActive@Sim@@QBE_NXZ ENDP				; Sim::IsActive
_TEXT	ENDS
; Function compile flags: /Ogtp
; File d:\programming\starshatter\trunk\stars45\sim.cpp
; File d:\programming\starshatter\trunk\foundationex\list.h
; File d:\programming\starshatter\trunk\stars45\sim.cpp
; File d:\programming\starshatter\trunk\foundationex\list.h
; File d:\programming\starshatter\trunk\stars45\sim.cpp
; File d:\programming\starshatter\trunk\foundationex\list.h
; File d:\programming\starshatter\trunk\stars45\sim.cpp
; File d:\programming\starshatter\trunk\foundationex\list.h
; File d:\programming\starshatter\trunk\stars45\sim.cpp
; File d:\programming\starshatter\trunk\foundationex\list.h
; File d:\programming\starshatter\trunk\stars45\sim.cpp
; File d:\programming\starshatter\trunk\foundationex\list.h
; File d:\programming\starshatter\trunk\stars45\sim.cpp
_TEXT	SEGMENT
_elem$ = -24						; size = 8
_total_skip$1$ = -16					; size = 8
_skipped$1$ = -8					; size = 8
?ResolveTimeSkip@Sim@@QAEXN@Z PROC			; Sim::ResolveTimeSkip
; _this$ = ecx
; _seconds$ = xmm1l

; 1969 : {

  00000	55		 push	 ebp
  00001	8b ec		 mov	 ebp, esp
  00003	83 ec 18	 sub	 esp, 24			; 00000018H
  00006	56		 push	 esi
  00007	8b f1		 mov	 esi, ecx
; File d:\programming\starshatter\trunk\foundationex\list.h

; 106  :    ListIter(List<T>& l)             : list(&l),     step(-1)      { }

  00009	c7 45 ec ff ff
	ff ff		 mov	 DWORD PTR _elem$[ebp+4], -1
; File d:\programming\starshatter\trunk\stars45\sim.cpp

; 1969 : {

  00010	0f 28 c1	 movaps	 xmm0, xmm1
; File d:\programming\starshatter\trunk\foundationex\list.h

; 108  :    int operator++() { return next() != 0; }

  00013	8d 4d e8	 lea	 ecx, DWORD PTR _elem$[ebp]
  00016	0f 57 c9	 xorps	 xmm1, xmm1
; File d:\programming\starshatter\trunk\stars45\sim.cpp

; 1969 : {

  00019	f2 0f 11 45 f0	 movsd	 QWORD PTR _total_skip$1$[ebp], xmm0
  0001e	57		 push	 edi

; 1970 :     double skipped   = 0;
; 1971 : 
; 1972 :     // allow elements to process hold time, and release as needed:
; 1973 :     ListIter<Element> elem = elements;

  0001f	8d 86 88 00 00
	00		 lea	 eax, DWORD PTR [esi+136]
  00025	f2 0f 11 4d f8	 movsd	 QWORD PTR _skipped$1$[ebp], xmm1
; File d:\programming\starshatter\trunk\foundationex\list.h

; 106  :    ListIter(List<T>& l)             : list(&l),     step(-1)      { }

  0002a	89 45 e8	 mov	 DWORD PTR _elem$[ebp], eax

; 108  :    int operator++() { return next() != 0; }

  0002d	e8 00 00 00 00	 call	 ?next@?$ListIter@VElement@@@@QAEPAVElement@@XZ ; ListIter<Element>::next
  00032	85 c0		 test	 eax, eax
; File d:\programming\starshatter\trunk\stars45\sim.cpp

; 1974 :     while (++elem)

  00034	74 2d		 je	 SHORT $LN3@ResolveTim
$LL2@ResolveTim:
; File d:\programming\starshatter\trunk\foundationex\list.h

; 110  :    T*  operator->() { return value();     }

  00036	8d 4d e8	 lea	 ecx, DWORD PTR _elem$[ebp]
  00039	e8 00 00 00 00	 call	 ?value@?$ListIter@VElement@@@@QAEPAVElement@@XZ ; ListIter<Element>::value
; File d:\programming\starshatter\trunk\stars45\sim.cpp

; 1975 :     elem->ExecFrame(seconds);

  0003e	83 ec 08	 sub	 esp, 8
  00041	8b c8		 mov	 ecx, eax
  00043	8b 10		 mov	 edx, DWORD PTR [eax]
  00045	f2 0f 11 04 24	 movsd	 QWORD PTR [esp], xmm0
  0004a	ff 52 1c	 call	 DWORD PTR [edx+28]
; File d:\programming\starshatter\trunk\foundationex\list.h

; 108  :    int operator++() { return next() != 0; }

  0004d	8d 4d e8	 lea	 ecx, DWORD PTR _elem$[ebp]
  00050	e8 00 00 00 00	 call	 ?next@?$ListIter@VElement@@@@QAEPAVElement@@XZ ; ListIter<Element>::next
; File d:\programming\starshatter\trunk\stars45\sim.cpp

; 1974 :     while (++elem)

  00055	f2 0f 10 45 f0	 movsd	 xmm0, QWORD PTR _total_skip$1$[ebp]
; File d:\programming\starshatter\trunk\foundationex\list.h

; 108  :    int operator++() { return next() != 0; }

  0005a	85 c0		 test	 eax, eax
; File d:\programming\starshatter\trunk\stars45\sim.cpp

; 1974 :     while (++elem)

  0005c	75 d8		 jne	 SHORT $LL2@ResolveTim
  0005e	f2 0f 10 4d f8	 movsd	 xmm1, QWORD PTR _skipped$1$[ebp]
$LN3@ResolveTim:

; 1976 : 
; 1977 :     // step through the skip, ten seconds at a time:
; 1978 :     if (active_region) {

  00063	83 7e 04 00	 cmp	 DWORD PTR [esi+4], 0
  00067	0f 84 84 00 00
	00		 je	 $LN6@ResolveTim

; 1979 :         double total_skip = seconds;
; 1980 :         double frame_skip = 10;
; 1981 :         Ship*  player     = GetPlayerShip();

  0006d	8b ce		 mov	 ecx, esi
  0006f	e8 00 00 00 00	 call	 ?GetPlayerShip@Sim@@QAEPAVShip@@XZ ; Sim::GetPlayerShip

; 1982 : 
; 1983 :         while (total_skip > frame_skip) {

  00074	66 0f 2f 05 00
	00 00 00	 comisd	 xmm0, QWORD PTR __real@4024000000000000
  0007c	76 4c		 jbe	 SHORT $LN36@ResolveTim
  0007e	66 90		 npad	 2
$LL4@ResolveTim:

; 1984 :             if (active_region->CanTimeSkip()) {

  00080	8b 4e 04	 mov	 ecx, DWORD PTR [esi+4]
  00083	e8 00 00 00 00	 call	 ?CanTimeSkip@SimRegion@@QBE_NXZ ; SimRegion::CanTimeSkip
  00088	84 c0		 test	 al, al
  0008a	0f 84 d7 00 00
	00		 je	 $LN7@ResolveTim

; 1985 :                 active_region->ResolveTimeSkip(frame_skip);

  00090	f2 0f 10 0d 00
	00 00 00	 movsd	 xmm1, QWORD PTR __real@4024000000000000
  00098	8b 4e 04	 mov	 ecx, DWORD PTR [esi+4]
  0009b	e8 00 00 00 00	 call	 ?ResolveTimeSkip@SimRegion@@QAEXN@Z ; SimRegion::ResolveTimeSkip

; 1986 :                 total_skip -= frame_skip;

  000a0	f2 0f 10 15 00
	00 00 00	 movsd	 xmm2, QWORD PTR __real@4024000000000000
  000a8	f2 0f 10 45 f0	 movsd	 xmm0, QWORD PTR _total_skip$1$[ebp]

; 1987 :                 skipped    += frame_skip;

  000ad	f2 0f 10 4d f8	 movsd	 xmm1, QWORD PTR _skipped$1$[ebp]
  000b2	f2 0f 5c c2	 subsd	 xmm0, xmm2
  000b6	f2 0f 58 ca	 addsd	 xmm1, xmm2
  000ba	66 0f 2f c2	 comisd	 xmm0, xmm2
  000be	f2 0f 11 45 f0	 movsd	 QWORD PTR _total_skip$1$[ebp], xmm0
  000c3	f2 0f 11 4d f8	 movsd	 QWORD PTR _skipped$1$[ebp], xmm1
  000c8	77 b6		 ja	 SHORT $LL4@ResolveTim
$LN36@ResolveTim:
  000ca	0f 57 d2	 xorps	 xmm2, xmm2

; 1992 :             }
; 1993 :         }
; 1994 : 
; 1995 :         if (total_skip > 0)

  000cd	66 0f 2f c2	 comisd	 xmm0, xmm2
  000d1	76 15		 jbe	 SHORT $LN9@ResolveTim

; 1996 :         active_region->ResolveTimeSkip(total_skip);

  000d3	8b 4e 04	 mov	 ecx, DWORD PTR [esi+4]
  000d6	0f 28 c8	 movaps	 xmm1, xmm0
  000d9	e8 00 00 00 00	 call	 ?ResolveTimeSkip@SimRegion@@QAEXN@Z ; SimRegion::ResolveTimeSkip
  000de	f2 0f 10 45 f0	 movsd	 xmm0, QWORD PTR _total_skip$1$[ebp]
$LN38@ResolveTim:
  000e3	f2 0f 10 4d f8	 movsd	 xmm1, QWORD PTR _skipped$1$[ebp]
$LN9@ResolveTim:

; 1997 :         skipped += total_skip;

  000e8	f2 0f 58 c8	 addsd	 xmm1, xmm0
  000ec	f2 0f 11 4d f8	 movsd	 QWORD PTR _skipped$1$[ebp], xmm1
$LN6@ResolveTim:

; 1998 :     }
; 1999 : 
; 2000 :     // give player control after time skip:
; 2001 :     Ship* player_ship = GetPlayerShip();

  000f1	8b ce		 mov	 ecx, esi
  000f3	e8 00 00 00 00	 call	 ?GetPlayerShip@Sim@@QAEPAVShip@@XZ ; Sim::GetPlayerShip
  000f8	8b f8		 mov	 edi, eax

; 2002 :     if (player_ship) {

  000fa	85 ff		 test	 edi, edi
  000fc	74 46		 je	 SHORT $LN18@ResolveTim

; 2003 :         player_ship->SetAutoNav(false);

  000fe	6a 00		 push	 0
  00100	8b cf		 mov	 ecx, edi
  00102	e8 00 00 00 00	 call	 ?SetAutoNav@Ship@@QAEX_N@Z ; Ship::SetAutoNav

; 2004 :         player_ship->SetThrottle(75);

  00107	f2 0f 10 0d 00
	00 00 00	 movsd	 xmm1, QWORD PTR __real@4052c00000000000
  0010f	8b cf		 mov	 ecx, edi
  00111	e8 00 00 00 00	 call	 ?SetThrottle@Ship@@QAEXN@Z ; Ship::SetThrottle

; 2005 : 
; 2006 :         HUDView* hud = HUDView::GetInstance();

  00116	8b 0d 00 00 00
	00		 mov	 ecx, DWORD PTR ?hud_view@HUDView@@1PAV1@A ; HUDView::hud_view

; 2007 :         if (hud)

  0011c	85 c9		 test	 ecx, ecx
  0011e	74 0a		 je	 SHORT $LN16@ResolveTim

; 2008 :         hud->SetHUDMode(HUDView::HUD_MODE_TAC);

  00120	8b 01		 mov	 eax, DWORD PTR [ecx]
  00122	6a 01		 push	 1
  00124	ff 90 b8 00 00
	00		 call	 DWORD PTR [eax+184]
$LN16@ResolveTim:

; 2009 : 
; 2010 :         if (IsTestMode())

  0012a	80 be bc 00 00
	00 00		 cmp	 BYTE PTR [esi+188], 0
  00131	74 0c		 je	 SHORT $LN37@ResolveTim

; 2011 :         player_ship->SetControls(0);

  00133	8b 07		 mov	 eax, DWORD PTR [edi]
  00135	8b cf		 mov	 ecx, edi
  00137	6a 00		 push	 0
  00139	ff 90 cc 00 00
	00		 call	 DWORD PTR [eax+204]
$LN37@ResolveTim:
  0013f	f2 0f 10 4d f8	 movsd	 xmm1, QWORD PTR _skipped$1$[ebp]
$LN18@ResolveTim:

; 2012 :     }
; 2013 : 
; 2014 :     Game::SkipGameTime(skipped);

  00144	83 ec 08	 sub	 esp, 8
  00147	f2 0f 11 0c 24	 movsd	 QWORD PTR [esp], xmm1
  0014c	e8 00 00 00 00	 call	 ?SkipGameTime@Game@@SAXN@Z ; Game::SkipGameTime

; 2015 :     CameraDirector::SetCameraMode(CameraDirector::MODE_COCKPIT);

  00151	f2 0f 10 0d 00
	00 00 00	 movsd	 xmm1, QWORD PTR __real@3ff0000000000000
  00159	83 c4 08	 add	 esp, 8
  0015c	e8 00 00 00 00	 call	 ?SetCameraMode@CameraDirector@@SAXHN@Z ; CameraDirector::SetCameraMode

; 2016 : }

  00161	5f		 pop	 edi
  00162	5e		 pop	 esi
  00163	8b e5		 mov	 esp, ebp
  00165	5d		 pop	 ebp
  00166	c3		 ret	 0
$LN7@ResolveTim:
  00167	0f 57 d2	 xorps	 xmm2, xmm2

; 1988 :             }
; 1989 :             // break out early if player runs into bad guys...
; 1990 :             else {
; 1991 :                 total_skip = 0;

  0016a	0f 28 c2	 movaps	 xmm0, xmm2
  0016d	e9 71 ff ff ff	 jmp	 $LN38@ResolveTim
?ResolveTimeSkip@Sim@@QAEXN@Z ENDP			; Sim::ResolveTimeSkip
_TEXT	ENDS
; Function compile flags: /Ogtp
; File d:\programming\starshatter\trunk\stars45\sim.cpp
; File d:\programming\starshatter\trunk\foundationex\memdebug.h
; File d:\programming\starshatter\trunk\stars45\sim.cpp
; File d:\programming\starshatter\trunk\foundationex\memdebug.h
; File d:\programming\starshatter\trunk\stars45\sim.cpp
; File d:\programming\starshatter\trunk\ngenex\geometry.h
; File d:\programming\starshatter\trunk\stars45\sim.cpp
; File d:\programming\starshatter\trunk\ngenex\geometry.h
; File d:\programming\starshatter\trunk\stars45\sim.cpp
; File d:\programming\starshatter\trunk\ngenex\geometry.h
; File d:\programming\starshatter\trunk\stars45\sim.cpp
; File d:\programming\starshatter\trunk\ngenex\geometry.h
; File d:\programming\starshatter\trunk\stars45\sim.cpp
; File d:\programming\starshatter\trunk\ngenex\geometry.h
; File d:\programming\starshatter\trunk\stars45\sim.cpp
; File d:\programming\starshatter\trunk\ngenex\geometry.h
; File d:\programming\starshatter\trunk\stars45\sim.cpp
_TEXT	SEGMENT
$T2 = -40						; size = 12
$T3 = -28						; size = 12
$T4 = -16						; size = 4
__$EHRec$ = -12						; size = 12
_pos$ = 8						; size = 4
_vel$ = 12						; size = 4
_model$ = 16						; size = 4
_rgn$ = 20						; size = 4
_mass$ = 24						; size = 8
?CreateDebris@Sim@@QAEPAVDebris@@ABUPoint@@0PAVModel@@NPAVSimRegion@@@Z PROC ; Sim::CreateDebris
; _this$ = ecx

; 1163 : {

  00000	55		 push	 ebp
  00001	8b ec		 mov	 ebp, esp
  00003	6a ff		 push	 -1
  00005	68 00 00 00 00	 push	 __ehhandler$?CreateDebris@Sim@@QAEPAVDebris@@ABUPoint@@0PAVModel@@NPAVSimRegion@@@Z
  0000a	64 a1 00 00 00
	00		 mov	 eax, DWORD PTR fs:0
  00010	50		 push	 eax
  00011	83 ec 20	 sub	 esp, 32			; 00000020H
  00014	56		 push	 esi
  00015	57		 push	 edi
  00016	a1 00 00 00 00	 mov	 eax, DWORD PTR ___security_cookie
  0001b	33 c5		 xor	 eax, ebp
  0001d	50		 push	 eax
  0001e	8d 45 f4	 lea	 eax, DWORD PTR __$EHRec$[ebp]
  00021	64 a3 00 00 00
	00		 mov	 DWORD PTR fs:0, eax
  00027	8b f9		 mov	 edi, ecx
; File d:\programming\starshatter\trunk\foundationex\memdebug.h

; 92   : inline void* __cdecl operator new(unsigned int s, const char*, int) { return ::operator new(s);    }

  00029	68 e0 01 00 00	 push	 480			; 000001e0H
  0002e	e8 00 00 00 00	 call	 ??2@YAPAXI@Z		; operator new
; File d:\programming\starshatter\trunk\stars45\sim.cpp

; 1164 :     Debris* debris = new(__FILE__,__LINE__) Debris(model, pos, vel, mass);

  00033	8b d0		 mov	 edx, eax
; File d:\programming\starshatter\trunk\foundationex\memdebug.h

; 92   : inline void* __cdecl operator new(unsigned int s, const char*, int) { return ::operator new(s);    }

  00035	83 c4 04	 add	 esp, 4
; File d:\programming\starshatter\trunk\stars45\sim.cpp

; 1164 :     Debris* debris = new(__FILE__,__LINE__) Debris(model, pos, vel, mass);

  00038	89 55 f0	 mov	 DWORD PTR $T4[ebp], edx
  0003b	c7 45 fc 00 00
	00 00		 mov	 DWORD PTR __$EHRec$[ebp+8], 0
  00042	85 d2		 test	 edx, edx
  00044	74 7b		 je	 SHORT $LN6@CreateDebr
; File d:\programming\starshatter\trunk\ngenex\geometry.h

; 222  :     operator Vec3() const { return Vec3((float) x, (float) y, (float) z); }

  00046	8b 4d 0c	 mov	 ecx, DWORD PTR _vel$[ebp]
; File d:\programming\starshatter\trunk\stars45\sim.cpp

; 1164 :     Debris* debris = new(__FILE__,__LINE__) Debris(model, pos, vel, mass);

  00049	83 ec 08	 sub	 esp, 8
; File d:\programming\starshatter\trunk\ngenex\geometry.h

; 222  :     operator Vec3() const { return Vec3((float) x, (float) y, (float) z); }

  0004c	8b 45 08	 mov	 eax, DWORD PTR _pos$[ebp]
  0004f	f2 0f 10 41 10	 movsd	 xmm0, QWORD PTR [ecx+16]
  00054	f2 0f 10 11	 movsd	 xmm2, QWORD PTR [ecx]
  00058	f2 0f 10 49 08	 movsd	 xmm1, QWORD PTR [ecx+8]
; File d:\programming\starshatter\trunk\stars45\sim.cpp

; 1164 :     Debris* debris = new(__FILE__,__LINE__) Debris(model, pos, vel, mass);

  0005d	8b ca		 mov	 ecx, edx
; File d:\programming\starshatter\trunk\ngenex\geometry.h

; 222  :     operator Vec3() const { return Vec3((float) x, (float) y, (float) z); }

  0005f	66 0f 5a c0	 cvtpd2ps xmm0, xmm0
  00063	66 0f 5a d2	 cvtpd2ps xmm2, xmm2

; 176  :     Vec3(float  ix, float  iy, float  iz) : x(ix),         y(iy),         z(iz)         { }

  00067	f3 0f 11 45 ec	 movss	 DWORD PTR $T3[ebp+8], xmm0
  0006c	f2 0f 10 40 10	 movsd	 xmm0, QWORD PTR [eax+16]

; 222  :     operator Vec3() const { return Vec3((float) x, (float) y, (float) z); }

  00071	66 0f 5a c9	 cvtpd2ps xmm1, xmm1
  00075	66 0f 5a c0	 cvtpd2ps xmm0, xmm0

; 176  :     Vec3(float  ix, float  iy, float  iz) : x(ix),         y(iy),         z(iz)         { }

  00079	f3 0f 11 55 e4	 movss	 DWORD PTR $T3[ebp], xmm2
  0007e	f2 0f 10 10	 movsd	 xmm2, QWORD PTR [eax]
  00082	f3 0f 11 4d e8	 movss	 DWORD PTR $T3[ebp+4], xmm1
  00087	f2 0f 10 48 08	 movsd	 xmm1, QWORD PTR [eax+8]
; File d:\programming\starshatter\trunk\stars45\sim.cpp

; 1164 :     Debris* debris = new(__FILE__,__LINE__) Debris(model, pos, vel, mass);

  0008c	8d 45 e4	 lea	 eax, DWORD PTR $T3[ebp]
; File d:\programming\starshatter\trunk\ngenex\geometry.h

; 176  :     Vec3(float  ix, float  iy, float  iz) : x(ix),         y(iy),         z(iz)         { }

  0008f	f3 0f 11 45 e0	 movss	 DWORD PTR $T2[ebp+8], xmm0
; File d:\programming\starshatter\trunk\stars45\sim.cpp

; 1164 :     Debris* debris = new(__FILE__,__LINE__) Debris(model, pos, vel, mass);

  00094	f2 0f 10 45 18	 movsd	 xmm0, QWORD PTR _mass$[ebp]
  00099	f2 0f 11 04 24	 movsd	 QWORD PTR [esp], xmm0
  0009e	50		 push	 eax
; File d:\programming\starshatter\trunk\ngenex\geometry.h

; 222  :     operator Vec3() const { return Vec3((float) x, (float) y, (float) z); }

  0009f	66 0f 5a d2	 cvtpd2ps xmm2, xmm2
; File d:\programming\starshatter\trunk\stars45\sim.cpp

; 1164 :     Debris* debris = new(__FILE__,__LINE__) Debris(model, pos, vel, mass);

  000a3	8d 45 d8	 lea	 eax, DWORD PTR $T2[ebp]
  000a6	50		 push	 eax
  000a7	ff 75 10	 push	 DWORD PTR _model$[ebp]
; File d:\programming\starshatter\trunk\ngenex\geometry.h

; 222  :     operator Vec3() const { return Vec3((float) x, (float) y, (float) z); }

  000aa	66 0f 5a c9	 cvtpd2ps xmm1, xmm1

; 176  :     Vec3(float  ix, float  iy, float  iz) : x(ix),         y(iy),         z(iz)         { }

  000ae	f3 0f 11 55 d8	 movss	 DWORD PTR $T2[ebp], xmm2
  000b3	f3 0f 11 4d dc	 movss	 DWORD PTR $T2[ebp+4], xmm1
; File d:\programming\starshatter\trunk\stars45\sim.cpp

; 1164 :     Debris* debris = new(__FILE__,__LINE__) Debris(model, pos, vel, mass);

  000b8	e8 00 00 00 00	 call	 ??0Debris@@QAE@PAVModel@@ABUVec3@@1N@Z ; Debris::Debris
  000bd	8b f0		 mov	 esi, eax
  000bf	eb 02		 jmp	 SHORT $LN7@CreateDebr
$LN6@CreateDebr:
  000c1	33 f6		 xor	 esi, esi
$LN7@CreateDebr:

; 1165 : 
; 1166 :     if (rgn)

  000c3	8b 4d 14	 mov	 ecx, DWORD PTR _rgn$[ebp]
  000c6	c7 45 fc ff ff
	ff ff		 mov	 DWORD PTR __$EHRec$[ebp+8], -1
  000cd	85 c9		 test	 ecx, ecx
  000cf	75 07		 jne	 SHORT $LN25@CreateDebr

; 1167 :     rgn->InsertObject(debris);
; 1168 : 
; 1169 :     else if (active_region)

  000d1	8b 4f 04	 mov	 ecx, DWORD PTR [edi+4]
  000d4	85 c9		 test	 ecx, ecx
  000d6	74 06		 je	 SHORT $LN23@CreateDebr
$LN25@CreateDebr:

; 1170 :     active_region->InsertObject(debris);

  000d8	8b 01		 mov	 eax, DWORD PTR [ecx]
  000da	56		 push	 esi
  000db	ff 50 1c	 call	 DWORD PTR [eax+28]
$LN23@CreateDebr:

; 1171 : 
; 1172 :     return debris;

  000de	8b c6		 mov	 eax, esi

; 1173 : }

  000e0	8b 4d f4	 mov	 ecx, DWORD PTR __$EHRec$[ebp]
  000e3	64 89 0d 00 00
	00 00		 mov	 DWORD PTR fs:0, ecx
  000ea	59		 pop	 ecx
  000eb	5f		 pop	 edi
  000ec	5e		 pop	 esi
  000ed	8b e5		 mov	 esp, ebp
  000ef	5d		 pop	 ebp
  000f0	c2 18 00	 ret	 24			; 00000018H
_TEXT	ENDS
text$x	SEGMENT
__unwindfunclet$?CreateDebris@Sim@@QAEPAVDebris@@ABUPoint@@0PAVModel@@NPAVSimRegion@@@Z$0:
  00000	68 8c 04 00 00	 push	 1164			; 0000048cH
  00005	68 00 00 00 00	 push	 OFFSET ??_C@_07MHJMBJCP@Sim?4cpp?$AA@
  0000a	8b 45 f0	 mov	 eax, DWORD PTR $T4[ebp]
  0000d	50		 push	 eax
  0000e	e8 00 00 00 00	 call	 ??3@YAXPAXPBDH@Z	; operator delete
  00013	83 c4 0c	 add	 esp, 12			; 0000000cH
  00016	c3		 ret	 0
__ehhandler$?CreateDebris@Sim@@QAEPAVDebris@@ABUPoint@@0PAVModel@@NPAVSimRegion@@@Z:
  00017	8b 54 24 08	 mov	 edx, DWORD PTR [esp+8]
  0001b	8d 42 0c	 lea	 eax, DWORD PTR [edx+12]
  0001e	8b 4a d4	 mov	 ecx, DWORD PTR [edx-44]
  00021	33 c8		 xor	 ecx, eax
  00023	e8 00 00 00 00	 call	 @__security_check_cookie@4
  00028	b8 00 00 00 00	 mov	 eax, OFFSET __ehfuncinfo$?CreateDebris@Sim@@QAEPAVDebris@@ABUPoint@@0PAVModel@@NPAVSimRegion@@@Z
  0002d	e9 00 00 00 00	 jmp	 ___CxxFrameHandler3
text$x	ENDS
?CreateDebris@Sim@@QAEPAVDebris@@ABUPoint@@0PAVModel@@NPAVSimRegion@@@Z ENDP ; Sim::CreateDebris
; Function compile flags: /Ogtp
; File d:\programming\starshatter\trunk\stars45\sim.cpp
; File d:\programming\starshatter\trunk\stars45\simobject.h
; File d:\programming\starshatter\trunk\stars45\sim.cpp
; File d:\programming\starshatter\trunk\stars45\ship.h
; File d:\programming\starshatter\trunk\stars45\sim.cpp
; File d:\programming\starshatter\trunk\foundationex\memdebug.h
; File d:\programming\starshatter\trunk\stars45\sim.cpp
; File d:\programming\starshatter\trunk\foundationex\memdebug.h
; File d:\programming\starshatter\trunk\stars45\sim.cpp
; File d:\programming\starshatter\trunk\stars45\simobject.h
; File d:\programming\starshatter\trunk\stars45\sim.cpp
; File d:\programming\starshatter\trunk\ngenex\geometry.h
; File d:\programming\starshatter\trunk\stars45\ship.h
; File d:\programming\starshatter\trunk\ngenex\geometry.h
; File d:\programming\starshatter\trunk\stars45\sim.cpp
; File d:\programming\starshatter\trunk\ngenex\geometry.h
; File d:\programming\starshatter\trunk\stars45\sim.cpp
; File d:\programming\starshatter\trunk\ngenex\physical.h
; File d:\programming\starshatter\trunk\stars45\sim.cpp
_TEXT	SEGMENT
_n$1$ = -60						; size = 8
_d$1$ = -52						; size = 8
$T2 = -44						; size = 8
$T3 = -36						; size = 8
$T4 = -28						; size = 8
_this$1$ = -20						; size = 4
__$EHRec$ = -12						; size = 12
$T5 = 8							; size = 4
_ship$ = 8						; size = 4
?CreateSplashDamage@Sim@@QAEXPAVShip@@@Z PROC		; Sim::CreateSplashDamage
; _this$ = ecx

; 1195 : {

  00000	55		 push	 ebp
  00001	8b ec		 mov	 ebp, esp
  00003	6a ff		 push	 -1
  00005	68 00 00 00 00	 push	 __ehhandler$?CreateSplashDamage@Sim@@QAEXPAVShip@@@Z
  0000a	64 a1 00 00 00
	00		 mov	 eax, DWORD PTR fs:0
  00010	50		 push	 eax
  00011	83 ec 30	 sub	 esp, 48			; 00000030H
  00014	53		 push	 ebx
  00015	56		 push	 esi
  00016	57		 push	 edi
  00017	a1 00 00 00 00	 mov	 eax, DWORD PTR ___security_cookie
  0001c	33 c5		 xor	 eax, ebp
  0001e	50		 push	 eax
  0001f	8d 45 f4	 lea	 eax, DWORD PTR __$EHRec$[ebp]
  00022	64 a3 00 00 00
	00		 mov	 DWORD PTR fs:0, eax
  00028	89 4d ec	 mov	 DWORD PTR _this$1$[ebp], ecx

; 1196 :     if (ship && ship->GetRegion() && ship->Design()->splash_radius > 1) {

  0002b	8b 75 08	 mov	 esi, DWORD PTR _ship$[ebp]
  0002e	85 f6		 test	 esi, esi
  00030	0f 84 2c 01 00
	00		 je	 $LN2@CreateSpla
  00036	8b 06		 mov	 eax, DWORD PTR [esi]
  00038	8b 80 90 00 00
	00		 mov	 eax, DWORD PTR [eax+144]
  0003e	3d 00 00 00 00	 cmp	 eax, OFFSET ?GetRegion@SimObject@@UBEPAVSimRegion@@XZ ; SimObject::GetRegion
  00043	75 08		 jne	 SHORT $LN7@CreateSpla
; File d:\programming\starshatter\trunk\stars45\simobject.h

; 76   :     virtual SimRegion*   GetRegion()                const { return region; }

  00045	8b 86 c8 01 00
	00		 mov	 eax, DWORD PTR [esi+456]
  0004b	eb 04		 jmp	 SHORT $LN6@CreateSpla
$LN7@CreateSpla:
  0004d	8b ce		 mov	 ecx, esi
; File d:\programming\starshatter\trunk\stars45\sim.cpp

; 1196 :     if (ship && ship->GetRegion() && ship->Design()->splash_radius > 1) {

  0004f	ff d0		 call	 eax
$LN6@CreateSpla:
  00051	85 c0		 test	 eax, eax
  00053	0f 84 09 01 00
	00		 je	 $LN2@CreateSpla
; File d:\programming\starshatter\trunk\stars45\ship.h

; 364  :     const ShipDesign* Design()          const    { return design;        }

  00059	8b 86 00 02 00
	00		 mov	 eax, DWORD PTR [esi+512]
; File d:\programming\starshatter\trunk\stars45\sim.cpp

; 1196 :     if (ship && ship->GetRegion() && ship->Design()->splash_radius > 1) {

  0005f	f3 0f 10 80 cc
	07 00 00	 movss	 xmm0, DWORD PTR [eax+1996]
  00067	0f 2f 05 00 00
	00 00		 comiss	 xmm0, DWORD PTR __real@3f800000
  0006e	0f 86 ee 00 00
	00		 jbe	 $LN2@CreateSpla
; File d:\programming\starshatter\trunk\foundationex\memdebug.h

; 92   : inline void* __cdecl operator new(unsigned int s, const char*, int) { return ::operator new(s);    }

  00074	6a 38		 push	 56			; 00000038H
  00076	e8 00 00 00 00	 call	 ??2@YAPAXI@Z		; operator new
; File d:\programming\starshatter\trunk\stars45\sim.cpp

; 1198 :         SimSplash(ship->GetRegion(),

  0007b	8b f8		 mov	 edi, eax
; File d:\programming\starshatter\trunk\foundationex\memdebug.h

; 92   : inline void* __cdecl operator new(unsigned int s, const char*, int) { return ::operator new(s);    }

  0007d	83 c4 04	 add	 esp, 4
; File d:\programming\starshatter\trunk\stars45\sim.cpp

; 1198 :         SimSplash(ship->GetRegion(),

  00080	89 7d 08	 mov	 DWORD PTR $T5[ebp], edi
  00083	c7 45 fc 00 00
	00 00		 mov	 DWORD PTR __$EHRec$[ebp+8], 0
  0008a	85 ff		 test	 edi, edi
  0008c	0f 84 b0 00 00
	00		 je	 $LN4@CreateSpla
  00092	8b 0e		 mov	 ecx, DWORD PTR [esi]
  00094	8b 81 90 00 00
	00		 mov	 eax, DWORD PTR [ecx+144]
  0009a	3d 00 00 00 00	 cmp	 eax, OFFSET ?GetRegion@SimObject@@UBEPAVSimRegion@@XZ ; SimObject::GetRegion
  0009f	75 08		 jne	 SHORT $LN9@CreateSpla
; File d:\programming\starshatter\trunk\stars45\simobject.h

; 76   :     virtual SimRegion*   GetRegion()                const { return region; }

  000a1	8b 9e c8 01 00
	00		 mov	 ebx, DWORD PTR [esi+456]
  000a7	eb 06		 jmp	 SHORT $LN8@CreateSpla
$LN9@CreateSpla:
  000a9	8b ce		 mov	 ecx, esi
; File d:\programming\starshatter\trunk\stars45\sim.cpp

; 1198 :         SimSplash(ship->GetRegion(),

  000ab	ff d0		 call	 eax
  000ad	8b d8		 mov	 ebx, eax
$LN8@CreateSpla:
; File d:\programming\starshatter\trunk\ngenex\geometry.h

; 219  :     Point(const Point& p)                  : x(p.x), y(p.y), z(p.z)  { }

  000af	f2 0f 10 46 48	 movsd	 xmm0, QWORD PTR [esi+72]
; File d:\programming\starshatter\trunk\stars45\ship.h

; 364  :     const ShipDesign* Design()          const    { return design;        }

  000b4	8b 8e 00 02 00
	00		 mov	 ecx, DWORD PTR [esi+512]
; File d:\programming\starshatter\trunk\ngenex\geometry.h

; 219  :     Point(const Point& p)                  : x(p.x), y(p.y), z(p.z)  { }

  000ba	f2 0f 11 45 e4	 movsd	 QWORD PTR $T4[ebp], xmm0
  000bf	f2 0f 10 46 50	 movsd	 xmm0, QWORD PTR [esi+80]
  000c4	f2 0f 11 45 dc	 movsd	 QWORD PTR $T3[ebp], xmm0
  000c9	f2 0f 10 46 58	 movsd	 xmm0, QWORD PTR [esi+88]
  000ce	f2 0f 11 45 d4	 movsd	 QWORD PTR $T2[ebp], xmm0
; File d:\programming\starshatter\trunk\stars45\sim.cpp

; 1198 :         SimSplash(ship->GetRegion(),

  000d3	f3 0f 10 81 24
	02 00 00	 movss	 xmm0, DWORD PTR [ecx+548]
  000db	f3 0f 59 05 00
	00 00 00	 mulss	 xmm0, DWORD PTR __real@3e800000

; 132  :     owner_name("Collateral Damage"), missile(false) { }

  000e3	68 00 00 00 00	 push	 OFFSET ??_C@_0BC@CAMCFAKE@Collateral?5Damage?$AA@

; 1198 :         SimSplash(ship->GetRegion(),

  000e8	0f 5a c0	 cvtps2pd xmm0, xmm0
  000eb	f2 0f 11 45 cc	 movsd	 QWORD PTR _d$1$[ebp], xmm0
  000f0	f3 0f 10 81 cc
	07 00 00	 movss	 xmm0, DWORD PTR [ecx+1996]

; 132  :     owner_name("Collateral Damage"), missile(false) { }

  000f8	8b cf		 mov	 ecx, edi

; 1198 :         SimSplash(ship->GetRegion(),

  000fa	0f 5a c0	 cvtps2pd xmm0, xmm0
  000fd	f2 0f 11 45 c4	 movsd	 QWORD PTR _n$1$[ebp], xmm0

; 132  :     owner_name("Collateral Damage"), missile(false) { }

  00102	e8 00 00 00 00	 call	 ??0Text@@QAE@PBD@Z	; Text::Text
; File d:\programming\starshatter\trunk\ngenex\geometry.h

; 219  :     Point(const Point& p)                  : x(p.x), y(p.y), z(p.z)  { }

  00107	f2 0f 10 45 e4	 movsd	 xmm0, QWORD PTR $T4[ebp]
  0010c	f2 0f 11 47 08	 movsd	 QWORD PTR [edi+8], xmm0
  00111	f2 0f 10 45 dc	 movsd	 xmm0, QWORD PTR $T3[ebp]
  00116	f2 0f 11 47 10	 movsd	 QWORD PTR [edi+16], xmm0
  0011b	f2 0f 10 45 d4	 movsd	 xmm0, QWORD PTR $T2[ebp]
  00120	f2 0f 11 47 18	 movsd	 QWORD PTR [edi+24], xmm0
; File d:\programming\starshatter\trunk\stars45\sim.cpp

; 131  :     : rgn(r), loc(l), damage(d), range(n),

  00125	f2 0f 10 45 cc	 movsd	 xmm0, QWORD PTR _d$1$[ebp]
  0012a	f2 0f 11 47 20	 movsd	 QWORD PTR [edi+32], xmm0
  0012f	f2 0f 10 45 c4	 movsd	 xmm0, QWORD PTR _n$1$[ebp]
  00134	f2 0f 11 47 28	 movsd	 QWORD PTR [edi+40], xmm0
  00139	89 5f 30	 mov	 DWORD PTR [edi+48], ebx

; 132  :     owner_name("Collateral Damage"), missile(false) { }

  0013c	c6 47 34 00	 mov	 BYTE PTR [edi+52], 0

; 1198 :         SimSplash(ship->GetRegion(),

  00140	eb 02		 jmp	 SHORT $LN5@CreateSpla
$LN4@CreateSpla:
  00142	33 ff		 xor	 edi, edi
$LN5@CreateSpla:
; File d:\programming\starshatter\trunk\ngenex\physical.h

; 102  :     const char*       Name()      const { return name;       }

  00144	8d 46 10	 lea	 eax, DWORD PTR [esi+16]
; File d:\programming\starshatter\trunk\stars45\sim.cpp

; 1198 :         SimSplash(ship->GetRegion(),

  00147	c7 45 fc ff ff
	ff ff		 mov	 DWORD PTR __$EHRec$[ebp+8], -1

; 1199 :         ship->Location(),
; 1200 :         ship->Design()->integrity / 4,
; 1201 :         ship->Design()->splash_radius);
; 1202 : 
; 1203 :         splash->owner_name = ship->Name();

  0014e	50		 push	 eax
  0014f	8b cf		 mov	 ecx, edi
  00151	e8 00 00 00 00	 call	 ??4Text@@QAEAAV0@PBD@Z	; Text::operator=

; 1204 :         splashlist.append(splash);

  00156	8b 4d ec	 mov	 ecx, DWORD PTR _this$1$[ebp]
  00159	57		 push	 edi
  0015a	83 c1 7c	 add	 ecx, 124		; 0000007cH
  0015d	e8 00 00 00 00	 call	 ?append@?$List@VSimSplash@@@@QAEXPBVSimSplash@@@Z ; List<SimSplash>::append
$LN2@CreateSpla:

; 1205 :     }
; 1206 : }

  00162	8b 4d f4	 mov	 ecx, DWORD PTR __$EHRec$[ebp]
  00165	64 89 0d 00 00
	00 00		 mov	 DWORD PTR fs:0, ecx
  0016c	59		 pop	 ecx
  0016d	5f		 pop	 edi
  0016e	5e		 pop	 esi
  0016f	5b		 pop	 ebx
  00170	8b e5		 mov	 esp, ebp
  00172	5d		 pop	 ebp
  00173	c2 04 00	 ret	 4
_TEXT	ENDS
text$x	SEGMENT
__unwindfunclet$?CreateSplashDamage@Sim@@QAEXPAVShip@@@Z$0:
  00000	68 ad 04 00 00	 push	 1197			; 000004adH
  00005	68 00 00 00 00	 push	 OFFSET ??_C@_07MHJMBJCP@Sim?4cpp?$AA@
  0000a	8b 45 08	 mov	 eax, DWORD PTR $T5[ebp]
  0000d	50		 push	 eax
  0000e	e8 00 00 00 00	 call	 ??3@YAXPAXPBDH@Z	; operator delete
  00013	83 c4 0c	 add	 esp, 12			; 0000000cH
  00016	c3		 ret	 0
__ehhandler$?CreateSplashDamage@Sim@@QAEXPAVShip@@@Z:
  00017	8b 54 24 08	 mov	 edx, DWORD PTR [esp+8]
  0001b	8d 42 0c	 lea	 eax, DWORD PTR [edx+12]
  0001e	8b 4a c0	 mov	 ecx, DWORD PTR [edx-64]
  00021	33 c8		 xor	 ecx, eax
  00023	e8 00 00 00 00	 call	 @__security_check_cookie@4
  00028	b8 00 00 00 00	 mov	 eax, OFFSET __ehfuncinfo$?CreateSplashDamage@Sim@@QAEXPAVShip@@@Z
  0002d	e9 00 00 00 00	 jmp	 ___CxxFrameHandler3
text$x	ENDS
?CreateSplashDamage@Sim@@QAEXPAVShip@@@Z ENDP		; Sim::CreateSplashDamage
; Function compile flags: /Ogtp
; File d:\programming\starshatter\trunk\stars45\sim.cpp
; File d:\programming\starshatter\trunk\foundationex\memdebug.h
; File d:\programming\starshatter\trunk\stars45\sim.cpp
; File d:\programming\starshatter\trunk\foundationex\memdebug.h
; File d:\programming\starshatter\trunk\stars45\sim.cpp
_TEXT	SEGMENT
__$EHRec$ = -12						; size = 12
_pos$ = 8						; size = 4
_shot_cam$ = 12						; size = 4
$T2 = 16						; size = 4
$T3 = 16						; size = 4
_design$ = 16						; size = 4
_ship$ = 20						; size = 4
_rgn$ = 24						; size = 4
?CreateShot@Sim@@QAEPAVShot@@ABUPoint@@ABVCamera@@PAVWeaponDesign@@PBVShip@@PAVSimRegion@@@Z PROC ; Sim::CreateShot
; _this$ = ecx

; 1122 : {

  00000	55		 push	 ebp
  00001	8b ec		 mov	 ebp, esp
  00003	6a ff		 push	 -1
  00005	68 00 00 00 00	 push	 __ehhandler$?CreateShot@Sim@@QAEPAVShot@@ABUPoint@@ABVCamera@@PAVWeaponDesign@@PBVShip@@PAVSimRegion@@@Z
  0000a	64 a1 00 00 00
	00		 mov	 eax, DWORD PTR fs:0
  00010	50		 push	 eax
  00011	51		 push	 ecx
  00012	56		 push	 esi
  00013	57		 push	 edi
  00014	a1 00 00 00 00	 mov	 eax, DWORD PTR ___security_cookie
  00019	33 c5		 xor	 eax, ebp
  0001b	50		 push	 eax
  0001c	8d 45 f4	 lea	 eax, DWORD PTR __$EHRec$[ebp]
  0001f	64 a3 00 00 00
	00		 mov	 DWORD PTR fs:0, eax
  00025	8b f9		 mov	 edi, ecx

; 1123 :     Shot* shot = 0;
; 1124 : 
; 1125 :     if (design->drone)

  00027	8b 75 10	 mov	 esi, DWORD PTR _design$[ebp]
  0002a	80 7e 1d 00	 cmp	 BYTE PTR [esi+29], 0
  0002e	74 30		 je	 SHORT $LN2@CreateShot
; File d:\programming\starshatter\trunk\foundationex\memdebug.h

; 92   : inline void* __cdecl operator new(unsigned int s, const char*, int) { return ::operator new(s);    }

  00030	68 50 02 00 00	 push	 592			; 00000250H
  00035	e8 00 00 00 00	 call	 ??2@YAPAXI@Z		; operator new
  0003a	83 c4 04	 add	 esp, 4
; File d:\programming\starshatter\trunk\stars45\sim.cpp

; 1126 :     shot = new(__FILE__,__LINE__) Drone(pos, shot_cam, design, ship);

  0003d	89 45 10	 mov	 DWORD PTR $T3[ebp], eax
  00040	c7 45 fc 00 00
	00 00		 mov	 DWORD PTR __$EHRec$[ebp+8], 0
  00047	85 c0		 test	 eax, eax
  00049	74 45		 je	 SHORT $LN10@CreateShot
  0004b	ff 75 14	 push	 DWORD PTR _ship$[ebp]
  0004e	8b c8		 mov	 ecx, eax
  00050	56		 push	 esi
  00051	ff 75 0c	 push	 DWORD PTR _shot_cam$[ebp]
  00054	ff 75 08	 push	 DWORD PTR _pos$[ebp]
  00057	e8 00 00 00 00	 call	 ??0Drone@@QAE@ABUPoint@@ABVCamera@@PAVWeaponDesign@@PBVShip@@@Z ; Drone::Drone
  0005c	8b f0		 mov	 esi, eax
  0005e	eb 32		 jmp	 SHORT $LN11@CreateShot
$LN2@CreateShot:
; File d:\programming\starshatter\trunk\foundationex\memdebug.h

; 92   : inline void* __cdecl operator new(unsigned int s, const char*, int) { return ::operator new(s);    }

  00060	68 40 02 00 00	 push	 576			; 00000240H
  00065	e8 00 00 00 00	 call	 ??2@YAPAXI@Z		; operator new
  0006a	83 c4 04	 add	 esp, 4
; File d:\programming\starshatter\trunk\stars45\sim.cpp

; 1128 :     shot = new(__FILE__,__LINE__) Shot( pos, shot_cam, design, ship);

  0006d	89 45 10	 mov	 DWORD PTR $T2[ebp], eax
  00070	c7 45 fc 01 00
	00 00		 mov	 DWORD PTR __$EHRec$[ebp+8], 1
  00077	85 c0		 test	 eax, eax
  00079	74 15		 je	 SHORT $LN10@CreateShot
  0007b	ff 75 14	 push	 DWORD PTR _ship$[ebp]
  0007e	8b c8		 mov	 ecx, eax
  00080	56		 push	 esi
  00081	ff 75 0c	 push	 DWORD PTR _shot_cam$[ebp]
  00084	ff 75 08	 push	 DWORD PTR _pos$[ebp]
  00087	e8 00 00 00 00	 call	 ??0Shot@@QAE@ABUPoint@@ABVCamera@@PAVWeaponDesign@@PBVShip@@@Z ; Shot::Shot
  0008c	8b f0		 mov	 esi, eax
  0008e	eb 02		 jmp	 SHORT $LN11@CreateShot
$LN10@CreateShot:
  00090	33 f6		 xor	 esi, esi
$LN11@CreateShot:

; 1129 : 
; 1130 :     if (rgn)

  00092	8b 4d 18	 mov	 ecx, DWORD PTR _rgn$[ebp]
  00095	c7 45 fc ff ff
	ff ff		 mov	 DWORD PTR __$EHRec$[ebp+8], -1
  0009c	85 c9		 test	 ecx, ecx
  0009e	74 08		 je	 SHORT $LN4@CreateShot

; 1131 :     rgn->InsertObject(shot);

  000a0	8b 11		 mov	 edx, DWORD PTR [ecx]
  000a2	56		 push	 esi
  000a3	ff 52 24	 call	 DWORD PTR [edx+36]

; 1132 : 
; 1133 :     else if (active_region)

  000a6	eb 0d		 jmp	 SHORT $LN22@CreateShot
$LN4@CreateShot:
  000a8	8b 4f 04	 mov	 ecx, DWORD PTR [edi+4]
  000ab	85 c9		 test	 ecx, ecx
  000ad	74 06		 je	 SHORT $LN22@CreateShot

; 1134 :     active_region->InsertObject(shot);

  000af	8b 01		 mov	 eax, DWORD PTR [ecx]
  000b1	56		 push	 esi
  000b2	ff 50 24	 call	 DWORD PTR [eax+36]
$LN22@CreateShot:

; 1135 : 
; 1136 :     return shot;

  000b5	8b c6		 mov	 eax, esi

; 1137 : }

  000b7	8b 4d f4	 mov	 ecx, DWORD PTR __$EHRec$[ebp]
  000ba	64 89 0d 00 00
	00 00		 mov	 DWORD PTR fs:0, ecx
  000c1	59		 pop	 ecx
  000c2	5f		 pop	 edi
  000c3	5e		 pop	 esi
  000c4	8b e5		 mov	 esp, ebp
  000c6	5d		 pop	 ebp
  000c7	c2 14 00	 ret	 20			; 00000014H
_TEXT	ENDS
text$x	SEGMENT
__unwindfunclet$?CreateShot@Sim@@QAEPAVShot@@ABUPoint@@ABVCamera@@PAVWeaponDesign@@PBVShip@@PAVSimRegion@@@Z$0:
  00000	68 66 04 00 00	 push	 1126			; 00000466H
  00005	68 00 00 00 00	 push	 OFFSET ??_C@_07MHJMBJCP@Sim?4cpp?$AA@
  0000a	8b 45 10	 mov	 eax, DWORD PTR $T3[ebp]
  0000d	50		 push	 eax
  0000e	e8 00 00 00 00	 call	 ??3@YAXPAXPBDH@Z	; operator delete
  00013	83 c4 0c	 add	 esp, 12			; 0000000cH
  00016	c3		 ret	 0
__unwindfunclet$?CreateShot@Sim@@QAEPAVShot@@ABUPoint@@ABVCamera@@PAVWeaponDesign@@PBVShip@@PAVSimRegion@@@Z$1:
  00017	68 68 04 00 00	 push	 1128			; 00000468H
  0001c	68 00 00 00 00	 push	 OFFSET ??_C@_07MHJMBJCP@Sim?4cpp?$AA@
  00021	8b 45 10	 mov	 eax, DWORD PTR $T2[ebp]
  00024	50		 push	 eax
  00025	e8 00 00 00 00	 call	 ??3@YAXPAXPBDH@Z	; operator delete
  0002a	83 c4 0c	 add	 esp, 12			; 0000000cH
  0002d	c3		 ret	 0
__ehhandler$?CreateShot@Sim@@QAEPAVShot@@ABUPoint@@ABVCamera@@PAVWeaponDesign@@PBVShip@@PAVSimRegion@@@Z:
  0002e	8b 54 24 08	 mov	 edx, DWORD PTR [esp+8]
  00032	8d 42 0c	 lea	 eax, DWORD PTR [edx+12]
  00035	8b 4a f0	 mov	 ecx, DWORD PTR [edx-16]
  00038	33 c8		 xor	 ecx, eax
  0003a	e8 00 00 00 00	 call	 @__security_check_cookie@4
  0003f	b8 00 00 00 00	 mov	 eax, OFFSET __ehfuncinfo$?CreateShot@Sim@@QAEPAVShot@@ABUPoint@@ABVCamera@@PAVWeaponDesign@@PBVShip@@PAVSimRegion@@@Z
  00044	e9 00 00 00 00	 jmp	 ___CxxFrameHandler3
text$x	ENDS
?CreateShot@Sim@@QAEPAVShot@@ABUPoint@@ABVCamera@@PAVWeaponDesign@@PBVShip@@PAVSimRegion@@@Z ENDP ; Sim::CreateShot
; Function compile flags: /Ogtp
; File d:\programming\starshatter\trunk\ngenex\universe.h
;	COMDAT ??0Universe@@QAE@XZ
_TEXT	SEGMENT
??0Universe@@QAE@XZ PROC				; Universe::Universe, COMDAT
; _this$ = ecx

; 49   :     Universe()           { }

  00000	c7 01 00 00 00
	00		 mov	 DWORD PTR [ecx], OFFSET ??_7Universe@@6B@
  00006	8b c1		 mov	 eax, ecx
  00008	c3		 ret	 0
??0Universe@@QAE@XZ ENDP				; Universe::Universe
_TEXT	ENDS
; Function compile flags: /Ogtp
; File d:\programming\starshatter\trunk\ngenex\universe.h
;	COMDAT ??1Universe@@UAE@XZ
_TEXT	SEGMENT
??1Universe@@UAE@XZ PROC				; Universe::~Universe, COMDAT
; _this$ = ecx

; 50   :     virtual ~Universe()  { }

  00000	c7 01 00 00 00
	00		 mov	 DWORD PTR [ecx], OFFSET ??_7Universe@@6B@
  00006	c3		 ret	 0
??1Universe@@UAE@XZ ENDP				; Universe::~Universe
_TEXT	ENDS
; Function compile flags: /Ogtp
; File d:\programming\starshatter\trunk\ngenex\universe.h
;	COMDAT ?ExecFrame@Universe@@UAEXN@Z
_TEXT	SEGMENT
_seconds$ = 8						; size = 8
?ExecFrame@Universe@@UAEXN@Z PROC			; Universe::ExecFrame, COMDAT
; _this$ = ecx

; 52   :     virtual void   ExecFrame(double seconds) { }

  00000	c2 08 00	 ret	 8
?ExecFrame@Universe@@UAEXN@Z ENDP			; Universe::ExecFrame
_TEXT	ENDS
; Function compile flags: /Ogtp
; File d:\programming\starshatter\trunk\ngenex\universe.h
;	COMDAT ??_GUniverse@@UAEPAXI@Z
_TEXT	SEGMENT
___flags$ = 8						; size = 4
??_GUniverse@@UAEPAXI@Z PROC				; Universe::`scalar deleting destructor', COMDAT
; _this$ = ecx
  00000	55		 push	 ebp
  00001	8b ec		 mov	 ebp, esp
  00003	f6 45 08 01	 test	 BYTE PTR ___flags$[ebp], 1
  00007	56		 push	 esi
  00008	8b f1		 mov	 esi, ecx

; 50   :     virtual ~Universe()  { }

  0000a	c7 06 00 00 00
	00		 mov	 DWORD PTR [esi], OFFSET ??_7Universe@@6B@
  00010	74 0b		 je	 SHORT $LN7@scalar
  00012	6a 04		 push	 4
  00014	56		 push	 esi
  00015	e8 00 00 00 00	 call	 ??3@YAXPAXI@Z		; operator delete
  0001a	83 c4 08	 add	 esp, 8
$LN7@scalar:
  0001d	8b c6		 mov	 eax, esi
  0001f	5e		 pop	 esi
  00020	5d		 pop	 ebp
  00021	c2 04 00	 ret	 4
??_GUniverse@@UAEPAXI@Z ENDP				; Universe::`scalar deleting destructor'
_TEXT	ENDS
; Function compile flags: /Ogtp
; File d:\programming\starshatter\trunk\ngenex\physical.h
;	COMDAT ?Roll@Physical@@QBENXZ
_TEXT	SEGMENT
?Roll@Physical@@QBENXZ PROC				; Physical::Roll, COMDAT
; _this$ = ecx

; 117  :     double            Roll()      const { return roll;       }

  00000	f3 0f 10 81 04
	01 00 00	 movss	 xmm0, DWORD PTR [ecx+260]
  00008	0f 5a c0	 cvtps2pd xmm0, xmm0
  0000b	c3		 ret	 0
?Roll@Physical@@QBENXZ ENDP				; Physical::Roll
_TEXT	ENDS
; Function compile flags: /Ogtp
; File d:\programming\starshatter\trunk\ngenex\physical.h
;	COMDAT ?Pitch@Physical@@QBENXZ
_TEXT	SEGMENT
?Pitch@Physical@@QBENXZ PROC				; Physical::Pitch, COMDAT
; _this$ = ecx

; 118  :     double            Pitch()     const { return pitch;      }

  00000	f3 0f 10 81 08
	01 00 00	 movss	 xmm0, DWORD PTR [ecx+264]
  00008	0f 5a c0	 cvtps2pd xmm0, xmm0
  0000b	c3		 ret	 0
?Pitch@Physical@@QBENXZ ENDP				; Physical::Pitch
_TEXT	ENDS
; Function compile flags: /Ogtp
; File d:\programming\starshatter\trunk\ngenex\physical.h
;	COMDAT ?Yaw@Physical@@QBENXZ
_TEXT	SEGMENT
?Yaw@Physical@@QBENXZ PROC				; Physical::Yaw, COMDAT
; _this$ = ecx

; 119  :     double            Yaw()       const { return yaw;        }

  00000	f3 0f 10 81 0c
	01 00 00	 movss	 xmm0, DWORD PTR [ecx+268]
  00008	0f 5a c0	 cvtps2pd xmm0, xmm0
  0000b	c3		 ret	 0
?Yaw@Physical@@QBENXZ ENDP				; Physical::Yaw
_TEXT	ENDS
; Function compile flags: /Ogtp
; File d:\programming\starshatter\trunk\stars45\sim.h
;	COMDAT ?IsTestMode@Sim@@QBE_NXZ
_TEXT	SEGMENT
?IsTestMode@Sim@@QBE_NXZ PROC				; Sim::IsTestMode, COMDAT
; _this$ = ecx

; 174  :     bool                 IsTestMode()   const { return test_mode;        }

  00000	8a 81 bc 00 00
	00		 mov	 al, BYTE PTR [ecx+188]
  00006	c3		 ret	 0
?IsTestMode@Sim@@QBE_NXZ ENDP				; Sim::IsTestMode
_TEXT	ENDS
; Function compile flags: /Ogtp
; File d:\programming\starshatter\trunk\stars45\sim.h
;	COMDAT ?GetPlayerShip@SimRegion@@QAEPAVShip@@XZ
_TEXT	SEGMENT
?GetPlayerShip@SimRegion@@QAEPAVShip@@XZ PROC		; SimRegion::GetPlayerShip, COMDAT
; _this$ = ecx

; 262  :     Ship*                GetPlayerShip() { return player_ship; }

  00000	8b 41 44	 mov	 eax, DWORD PTR [ecx+68]
  00003	c3		 ret	 0
?GetPlayerShip@SimRegion@@QAEPAVShip@@XZ ENDP		; SimRegion::GetPlayerShip
_TEXT	ENDS
; Function compile flags: /Ogtp
; File d:\programming\starshatter\trunk\stars45\simevent.h
;	COMDAT ?GetCombatGroup@ShipStats@@QBEPAVCombatGroup@@XZ
_TEXT	SEGMENT
?GetCombatGroup@ShipStats@@QBEPAVCombatGroup@@XZ PROC	; ShipStats::GetCombatGroup, COMDAT
; _this$ = ecx

; 116  :     CombatGroup*   GetCombatGroup()  const { return combat_group;  }

  00000	8b 41 20	 mov	 eax, DWORD PTR [ecx+32]
  00003	c3		 ret	 0
?GetCombatGroup@ShipStats@@QBEPAVCombatGroup@@XZ ENDP	; ShipStats::GetCombatGroup
_TEXT	ENDS
; Function compile flags: /Ogtp
; File d:\programming\starshatter\trunk\stars45\simevent.h
;	COMDAT ?GetElementIndex@ShipStats@@QBEHXZ
_TEXT	SEGMENT
?GetElementIndex@ShipStats@@QBEHXZ PROC			; ShipStats::GetElementIndex, COMDAT
; _this$ = ecx

; 118  :     int            GetElementIndex() const { return elem_index;    }

  00000	8b 41 2c	 mov	 eax, DWORD PTR [ecx+44]
  00003	c3		 ret	 0
?GetElementIndex@ShipStats@@QBEHXZ ENDP			; ShipStats::GetElementIndex
_TEXT	ENDS
; Function compile flags: /Ogtp
; File d:\programming\starshatter\trunk\stars45\simevent.h
;	COMDAT ?IsPlayer@ShipStats@@QBE_NXZ
_TEXT	SEGMENT
?IsPlayer@ShipStats@@QBE_NXZ PROC			; ShipStats::IsPlayer, COMDAT
; _this$ = ecx

; 133  :     bool           IsPlayer()        const { return player;        }

  00000	8a 41 28	 mov	 al, BYTE PTR [ecx+40]
  00003	c3		 ret	 0
?IsPlayer@ShipStats@@QBE_NXZ ENDP			; ShipStats::IsPlayer
_TEXT	ENDS
; Function compile flags: /Ogtp
; File d:\programming\starshatter\trunk\stars45\simevent.h
;	COMDAT ?SetShipClass@ShipStats@@QAEXH@Z
_TEXT	SEGMENT
_c$ = 8							; size = 4
?SetShipClass@ShipStats@@QAEXH@Z PROC			; ShipStats::SetShipClass, COMDAT
; _this$ = ecx

; 141  :     void           SetShipClass(int c)     { ship_class = c;       }

  00000	55		 push	 ebp
  00001	8b ec		 mov	 ebp, esp
  00003	8b 45 08	 mov	 eax, DWORD PTR _c$[ebp]
  00006	89 41 30	 mov	 DWORD PTR [ecx+48], eax
  00009	5d		 pop	 ebp
  0000a	c2 04 00	 ret	 4
?SetShipClass@ShipStats@@QAEXH@Z ENDP			; ShipStats::SetShipClass
_TEXT	ENDS
; Function compile flags: /Ogtp
; File d:\programming\starshatter\trunk\stars45\simevent.h
;	COMDAT ?AddCommandPoints@ShipStats@@QAEXH@Z
_TEXT	SEGMENT
_p$ = 8							; size = 4
?AddCommandPoints@ShipStats@@QAEXH@Z PROC		; ShipStats::AddCommandPoints, COMDAT
; _this$ = ecx

; 156  :     void           AddCommandPoints(int p) { cmd_points += p;      }

  00000	55		 push	 ebp
  00001	8b ec		 mov	 ebp, esp
  00003	8b 45 08	 mov	 eax, DWORD PTR _p$[ebp]
  00006	01 41 5c	 add	 DWORD PTR [ecx+92], eax
  00009	5d		 pop	 ebp
  0000a	c2 04 00	 ret	 4
?AddCommandPoints@ShipStats@@QAEXH@Z ENDP		; ShipStats::AddCommandPoints
_TEXT	ENDS
; Function compile flags: /Ogtp
; File d:\programming\starshatter\trunk\stars45\simobject.h
;	COMDAT ?TYPENAME@SimObserver@@SAPBDXZ
_TEXT	SEGMENT
?TYPENAME@SimObserver@@SAPBDXZ PROC			; SimObserver::TYPENAME, COMDAT

; 105  :     static const char* TYPENAME() { return "SimObserver"; }

  00000	b8 00 00 00 00	 mov	 eax, OFFSET ??_C@_0M@EIEAPHAO@SimObserver?$AA@
  00005	c3		 ret	 0
?TYPENAME@SimObserver@@SAPBDXZ ENDP			; SimObserver::TYPENAME
_TEXT	ENDS
; Function compile flags: /Ogtp
; File d:\programming\starshatter\trunk\ngenex\game.h
;	COMDAT ?GetMaxFrameLength@Game@@SANXZ
_TEXT	SEGMENT
?GetMaxFrameLength@Game@@SANXZ PROC			; Game::GetMaxFrameLength, COMDAT

; 124  :     static double     GetMaxFrameLength()               { return max_frame_length;    }

  00000	f2 0f 10 05 00
	00 00 00	 movsd	 xmm0, QWORD PTR ?max_frame_length@Game@@1NA
  00008	c3		 ret	 0
?GetMaxFrameLength@Game@@SANXZ ENDP			; Game::GetMaxFrameLength
_TEXT	ENDS
; Function compile flags: /Ogtp
; File d:\programming\starshatter\trunk\stars45\starshatter.h
;	COMDAT ?Dust@Starshatter@@QAEHXZ
_TEXT	SEGMENT
?Dust@Starshatter@@QAEHXZ PROC				; Starshatter::Dust, COMDAT
; _this$ = ecx

; 129  :     int               Dust()               { return dust;          }

  00000	8b 81 e8 a5 00
	00		 mov	 eax, DWORD PTR [ecx+42472]
  00006	c3		 ret	 0
?Dust@Starshatter@@QAEHXZ ENDP				; Starshatter::Dust
_TEXT	ENDS
; Function compile flags: /Ogtp
; File d:\programming\starshatter\trunk\ngenex\solid.h
;	COMDAT ??8Model@@QBEHABV0@@Z
_TEXT	SEGMENT
_that$ = 8						; size = 4
??8Model@@QBEHABV0@@Z PROC				; Model::operator==, COMDAT
; _this$ = ecx

; 145  :     int operator == (const Model& that) const { return this == &that; }

  00000	55		 push	 ebp
  00001	8b ec		 mov	 ebp, esp
  00003	33 c0		 xor	 eax, eax
  00005	3b 4d 08	 cmp	 ecx, DWORD PTR _that$[ebp]
  00008	0f 94 c0	 sete	 al
  0000b	5d		 pop	 ebp
  0000c	c2 04 00	 ret	 4
??8Model@@QBEHABV0@@Z ENDP				; Model::operator==
_TEXT	ENDS
; Function compile flags: /Ogtp
; File d:\programming\starshatter\trunk\stars45\starsystem.h
;	COMDAT ?NumDust@StarSystem@@QBEHXZ
_TEXT	SEGMENT
?NumDust@StarSystem@@QBEHXZ PROC			; StarSystem::NumDust, COMDAT
; _this$ = ecx

; 92   :     int               NumDust()      const { return sky_dust;  }

  00000	8b 81 98 00 00
	00		 mov	 eax, DWORD PTR [ecx+152]
  00006	c3		 ret	 0
?NumDust@StarSystem@@QBEHXZ ENDP			; StarSystem::NumDust
_TEXT	ENDS
; Function compile flags: /Ogtp
; File d:\programming\starshatter\trunk\stars45\starsystem.h
;	COMDAT ?System@Orbital@@QBEPAVStarSystem@@XZ
_TEXT	SEGMENT
?System@Orbital@@QBEPAVStarSystem@@XZ PROC		; Orbital::System, COMDAT
; _this$ = ecx

; 242  :     StarSystem*       System()       const { return system;     }

  00000	8b 81 e8 00 00
	00		 mov	 eax, DWORD PTR [ecx+232]
  00006	c3		 ret	 0
?System@Orbital@@QBEPAVStarSystem@@XZ ENDP		; Orbital::System
_TEXT	ENDS
; Function compile flags: /Ogtp
; File d:\programming\starshatter\trunk\stars45\starsystem.h
;	COMDAT ?Asteroids@OrbitalRegion@@QBEHXZ
_TEXT	SEGMENT
?Asteroids@OrbitalRegion@@QBEHXZ PROC			; OrbitalRegion::Asteroids, COMDAT
; _this$ = ecx

; 335  :     int               Asteroids()       const { return asteroids;     }

  00000	8b 81 10 01 00
	00		 mov	 eax, DWORD PTR [ecx+272]
  00006	c3		 ret	 0
?Asteroids@OrbitalRegion@@QBEHXZ ENDP			; OrbitalRegion::Asteroids
_TEXT	ENDS
; Function compile flags: /Ogtp
; File d:\programming\starshatter\trunk\stars45\starsystem.h
;	COMDAT ?Links@OrbitalRegion@@QAEAAV?$List@VText@@@@XZ
_TEXT	SEGMENT
?Links@OrbitalRegion@@QAEAAV?$List@VText@@@@XZ PROC	; OrbitalRegion::Links, COMDAT
; _this$ = ecx

; 336  :     List<Text>&       Links()                 { return links;         }

  00000	8d 81 14 01 00
	00		 lea	 eax, DWORD PTR [ecx+276]
  00006	c3		 ret	 0
?Links@OrbitalRegion@@QAEAAV?$List@VText@@@@XZ ENDP	; OrbitalRegion::Links
_TEXT	ENDS
; Function compile flags: /Ogtp
; File d:\programming\starshatter\trunk\stars45\ship.h
;	COMDAT ?SetAIMode@Ship@@QAEXH@Z
_TEXT	SEGMENT
_n$ = 8							; size = 4
?SetAIMode@Ship@@QAEXH@Z PROC				; Ship::SetAIMode, COMDAT
; _this$ = ecx

; 178  :     void              SetAIMode(int n)                 { ai_mode = (BYTE) n; }

  00000	55		 push	 ebp
  00001	8b ec		 mov	 ebp, esp
  00003	8a 45 08	 mov	 al, BYTE PTR _n$[ebp]
  00006	88 81 14 04 00
	00		 mov	 BYTE PTR [ecx+1044], al
  0000c	5d		 pop	 ebp
  0000d	c2 04 00	 ret	 4
?SetAIMode@Ship@@QAEXH@Z ENDP				; Ship::SetAIMode
_TEXT	ENDS
; Function compile flags: /Ogtp
; File d:\programming\starshatter\trunk\stars45\ship.h
;	COMDAT ?SetInvulnerable@Ship@@QAEX_N@Z
_TEXT	SEGMENT
_n$ = 8							; size = 1
?SetInvulnerable@Ship@@QAEX_N@Z PROC			; Ship::SetInvulnerable, COMDAT
; _this$ = ecx

; 188  :     void              SetInvulnerable(bool n)          { invulnerable = n;         }

  00000	55		 push	 ebp
  00001	8b ec		 mov	 ebp, esp
  00003	8a 45 08	 mov	 al, BYTE PTR _n$[ebp]
  00006	88 81 22 04 00
	00		 mov	 BYTE PTR [ecx+1058], al
  0000c	5d		 pop	 ebp
  0000d	c2 04 00	 ret	 4
?SetInvulnerable@Ship@@QAEX_N@Z ENDP			; Ship::SetInvulnerable
_TEXT	ENDS
; Function compile flags: /Ogtp
; File d:\programming\starshatter\trunk\stars45\ship.h
;	COMDAT ?GetCarrier@Ship@@QBEPAV1@XZ
_TEXT	SEGMENT
?GetCarrier@Ship@@QBEPAV1@XZ PROC			; Ship::GetCarrier, COMDAT
; _this$ = ecx

; 210  :     Ship*             GetCarrier()       const { return carrier;       }

  00000	8b 81 2c 04 00
	00		 mov	 eax, DWORD PTR [ecx+1068]
  00006	c3		 ret	 0
?GetCarrier@Ship@@QBEPAV1@XZ ENDP			; Ship::GetCarrier
_TEXT	ENDS
; Function compile flags: /Ogtp
; File d:\programming\starshatter\trunk\stars45\ship.h
;	COMDAT ?Registry@Ship@@QBEPBDXZ
_TEXT	SEGMENT
?Registry@Ship@@QBEPBDXZ PROC				; Ship::Registry, COMDAT
; _this$ = ecx

; 362  :     const char*       Registry()        const    { return regnum;        }

  00000	8d 81 f0 01 00
	00		 lea	 eax, DWORD PTR [ecx+496]
  00006	c3		 ret	 0
?Registry@Ship@@QBEPBDXZ ENDP				; Ship::Registry
_TEXT	ENDS
; Function compile flags: /Ogtp
; File d:\programming\starshatter\trunk\stars45\ship.h
;	COMDAT ?UseSkin@Ship@@QAEXPBVSkin@@@Z
_TEXT	SEGMENT
_s$ = 8							; size = 4
?UseSkin@Ship@@QAEXPBVSkin@@@Z PROC			; Ship::UseSkin, COMDAT
; _this$ = ecx

; 391  :     void              UseSkin(const Skin* s)     { skin = s;             }

  00000	55		 push	 ebp
  00001	8b ec		 mov	 ebp, esp
  00003	8b 45 08	 mov	 eax, DWORD PTR _s$[ebp]
  00006	89 81 2c 03 00
	00		 mov	 DWORD PTR [ecx+812], eax
  0000c	5d		 pop	 ebp
  0000d	c2 04 00	 ret	 4
?UseSkin@Ship@@QAEXPBVSkin@@@Z ENDP			; Ship::UseSkin
_TEXT	ENDS
; Function compile flags: /Ogtp
; File d:\programming\starshatter\trunk\stars45\ship.h
;	COMDAT ?RespawnLoc@Ship@@QBEABUPoint@@XZ
_TEXT	SEGMENT
?RespawnLoc@Ship@@QBEABUPoint@@XZ PROC			; Ship::RespawnLoc, COMDAT
; _this$ = ecx

; 398  :     const Point&      RespawnLoc()      const    { return respawn_loc;   }

  00000	8d 81 80 04 00
	00		 lea	 eax, DWORD PTR [ecx+1152]
  00006	c3		 ret	 0
?RespawnLoc@Ship@@QBEABUPoint@@XZ ENDP			; Ship::RespawnLoc
_TEXT	ENDS
; Function compile flags: /Ogtp
; File d:\programming\starshatter\trunk\stars45\element.h
;	COMDAT ?Player@Element@@QBEHXZ
_TEXT	SEGMENT
?Player@Element@@QBEHXZ PROC				; Element::Player, COMDAT
; _this$ = ecx

; 74   :     int               Player()          const { return player;           }

  00000	8b 41 1c	 mov	 eax, DWORD PTR [ecx+28]
  00003	c3		 ret	 0
?Player@Element@@QBEHXZ ENDP				; Element::Player
_TEXT	ENDS
; Function compile flags: /Ogtp
; File d:\programming\starshatter\trunk\stars45\element.h
;	COMDAT ?SetPlayer@Element@@QAEXH@Z
_TEXT	SEGMENT
_p$ = 8							; size = 4
?SetPlayer@Element@@QAEXH@Z PROC			; Element::SetPlayer, COMDAT
; _this$ = ecx

; 75   :     void              SetPlayer(int p)        { player = p;              }

  00000	55		 push	 ebp
  00001	8b ec		 mov	 ebp, esp
  00003	8b 45 08	 mov	 eax, DWORD PTR _p$[ebp]
  00006	89 41 1c	 mov	 DWORD PTR [ecx+28], eax
  00009	5d		 pop	 ebp
  0000a	c2 04 00	 ret	 4
?SetPlayer@Element@@QAEXH@Z ENDP			; Element::SetPlayer
_TEXT	ENDS
; Function compile flags: /Ogtp
; File d:\programming\starshatter\trunk\stars45\element.h
;	COMDAT ?IsRogue@Element@@QBE_NXZ
_TEXT	SEGMENT
?IsRogue@Element@@QBE_NXZ PROC				; Element::IsRogue, COMDAT
; _this$ = ecx

; 97   :     bool              IsRogue()         const { return rogue;            }

  00000	8a 81 a0 00 00
	00		 mov	 al, BYTE PTR [ecx+160]
  00006	c3		 ret	 0
?IsRogue@Element@@QBE_NXZ ENDP				; Element::IsRogue
_TEXT	ENDS
; Function compile flags: /Ogtp
; File d:\programming\starshatter\trunk\stars45\element.h
;	COMDAT ?IsPlayable@Element@@QBE_NXZ
_TEXT	SEGMENT
?IsPlayable@Element@@QBE_NXZ PROC			; Element::IsPlayable, COMDAT
; _this$ = ecx

; 98   :     bool              IsPlayable()      const { return playable;         }

  00000	8a 81 a1 00 00
	00		 mov	 al, BYTE PTR [ecx+161]
  00006	c3		 ret	 0
?IsPlayable@Element@@QBE_NXZ ENDP			; Element::IsPlayable
_TEXT	ENDS
; Function compile flags: /Ogtp
; File d:\programming\starshatter\trunk\stars45\element.h
;	COMDAT ?SetRogue@Element@@QAEX_N@Z
_TEXT	SEGMENT
_r$ = 8							; size = 1
?SetRogue@Element@@QAEX_N@Z PROC			; Element::SetRogue, COMDAT
; _this$ = ecx

; 101  :     void              SetRogue(bool r)        { rogue = r;               }

  00000	55		 push	 ebp
  00001	8b ec		 mov	 ebp, esp
  00003	8a 45 08	 mov	 al, BYTE PTR _r$[ebp]
  00006	88 81 a0 00 00
	00		 mov	 BYTE PTR [ecx+160], al
  0000c	5d		 pop	 ebp
  0000d	c2 04 00	 ret	 4
?SetRogue@Element@@QAEX_N@Z ENDP			; Element::SetRogue
_TEXT	ENDS
; Function compile flags: /Ogtp
; File d:\programming\starshatter\trunk\stars45\element.h
;	COMDAT ?SetPlayable@Element@@QAEX_N@Z
_TEXT	SEGMENT
_p$ = 8							; size = 1
?SetPlayable@Element@@QAEX_N@Z PROC			; Element::SetPlayable, COMDAT
; _this$ = ecx

; 102  :     void              SetPlayable(bool p)     { playable = p;            }

  00000	55		 push	 ebp
  00001	8b ec		 mov	 ebp, esp
  00003	8a 45 08	 mov	 al, BYTE PTR _p$[ebp]
  00006	88 81 a1 00 00
	00		 mov	 BYTE PTR [ecx+161], al
  0000c	5d		 pop	 ebp
  0000d	c2 04 00	 ret	 4
?SetPlayable@Element@@QAEX_N@Z ENDP			; Element::SetPlayable
_TEXT	ENDS
; Function compile flags: /Ogtp
; File d:\programming\starshatter\trunk\stars45\element.h
;	COMDAT ?GetAssignment@Element@@QBEPAV1@XZ
_TEXT	SEGMENT
?GetAssignment@Element@@QBEPAV1@XZ PROC			; Element::GetAssignment, COMDAT
; _this$ = ecx

; 139  :     Element*          GetAssignment()            const { return assignment; }

  00000	8b 41 78	 mov	 eax, DWORD PTR [ecx+120]
  00003	c3		 ret	 0
?GetAssignment@Element@@QBEPAV1@XZ ENDP			; Element::GetAssignment
_TEXT	ENDS
; Function compile flags: /Ogtp
; File d:\programming\starshatter\trunk\stars45\element.h
;	COMDAT ?GetCommandAILevel@Element@@QBEHXZ
_TEXT	SEGMENT
?GetCommandAILevel@Element@@QBEHXZ PROC			; Element::GetCommandAILevel, COMDAT
; _this$ = ecx

; 145  :     int               GetCommandAILevel()        const { return command_ai; }

  00000	8b 41 20	 mov	 eax, DWORD PTR [ecx+32]
  00003	c3		 ret	 0
?GetCommandAILevel@Element@@QBEHXZ ENDP			; Element::GetCommandAILevel
_TEXT	ENDS
; Function compile flags: /Ogtp
; File d:\programming\starshatter\trunk\stars45\element.h
;	COMDAT ?SetCommandAILevel@Element@@QAEXH@Z
_TEXT	SEGMENT
_n$ = 8							; size = 4
?SetCommandAILevel@Element@@QAEXH@Z PROC		; Element::SetCommandAILevel, COMDAT
; _this$ = ecx

; 146  :     void              SetCommandAILevel(int n)         { command_ai = n;    }

  00000	55		 push	 ebp
  00001	8b ec		 mov	 ebp, esp
  00003	8b 45 08	 mov	 eax, DWORD PTR _n$[ebp]
  00006	89 41 20	 mov	 DWORD PTR [ecx+32], eax
  00009	5d		 pop	 ebp
  0000a	c2 04 00	 ret	 4
?SetCommandAILevel@Element@@QAEXH@Z ENDP		; Element::SetCommandAILevel
_TEXT	ENDS
; Function compile flags: /Ogtp
; File d:\programming\starshatter\trunk\stars45\element.h
;	COMDAT ?GetSquadron@Element@@QBEABVText@@XZ
_TEXT	SEGMENT
?GetSquadron@Element@@QBEABVText@@XZ PROC		; Element::GetSquadron, COMDAT
; _this$ = ecx

; 147  :     const Text&       GetSquadron()              const { return squadron;   }

  00000	8d 81 80 00 00
	00		 lea	 eax, DWORD PTR [ecx+128]
  00006	c3		 ret	 0
?GetSquadron@Element@@QBEABVText@@XZ ENDP		; Element::GetSquadron
_TEXT	ENDS
; Function compile flags: /Ogtp
; File d:\programming\starshatter\trunk\stars45\element.h
;	COMDAT ?GetCount@Element@@QBEHXZ
_TEXT	SEGMENT
?GetCount@Element@@QBEHXZ PROC				; Element::GetCount, COMDAT
; _this$ = ecx

; 157  :     int               GetCount()                 const { return count;      }

  00000	8b 41 34	 mov	 eax, DWORD PTR [ecx+52]
  00003	c3		 ret	 0
?GetCount@Element@@QBEHXZ ENDP				; Element::GetCount
_TEXT	ENDS
; Function compile flags: /Ogtp
; File d:\programming\starshatter\trunk\stars45\element.h
;	COMDAT ?SetCount@Element@@QAEXH@Z
_TEXT	SEGMENT
_n$ = 8							; size = 4
?SetCount@Element@@QAEXH@Z PROC				; Element::SetCount, COMDAT
; _this$ = ecx

; 158  :     void              SetCount(int n)                  { count = n;         }

  00000	55		 push	 ebp
  00001	8b ec		 mov	 ebp, esp
  00003	8b 45 08	 mov	 eax, DWORD PTR _n$[ebp]
  00006	89 41 34	 mov	 DWORD PTR [ecx+52], eax
  00009	5d		 pop	 ebp
  0000a	c2 04 00	 ret	 4
?SetCount@Element@@QAEXH@Z ENDP				; Element::SetCount
_TEXT	ENDS
; Function compile flags: /Ogtp
; File d:\programming\starshatter\trunk\stars45\shot.h
;	COMDAT ?SetHitTarget@Shot@@QAEX_N@Z
_TEXT	SEGMENT
_h$dead$ = 8						; size = 1
?SetHitTarget@Shot@@QAEX_N@Z PROC			; Shot::SetHitTarget, COMDAT
; _this$ = ecx

; 92   :     void              SetHitTarget(bool h) { hit_target = h;    }

  00000	c6 81 0f 02 00
	00 01		 mov	 BYTE PTR [ecx+527], 1
  00007	c2 04 00	 ret	 4
?SetHitTarget@Shot@@QAEX_N@Z ENDP			; Shot::SetHitTarget
_TEXT	ENDS
; Function compile flags: /Ogtp
; File d:\programming\starshatter\trunk\stars45\drone.h
;	COMDAT ?TYPENAME@Drone@@SAPBDXZ
_TEXT	SEGMENT
?TYPENAME@Drone@@SAPBDXZ PROC				; Drone::TYPENAME, COMDAT

; 61   :     static const char* TYPENAME() { return "Drone"; }

  00000	b8 00 00 00 00	 mov	 eax, OFFSET ??_C@_05GAGADLBE@Drone?$AA@
  00005	c3		 ret	 0
?TYPENAME@Drone@@SAPBDXZ ENDP				; Drone::TYPENAME
_TEXT	ENDS
; Function compile flags: /Ogtp
; File d:\programming\starshatter\trunk\stars45\drone.h
;	COMDAT ?SetLife@Drone@@QAEXH@Z
_TEXT	SEGMENT
_seconds$dead$ = 8					; size = 4
?SetLife@Drone@@QAEXH@Z PROC				; Drone::SetLife, COMDAT
; _this$ = ecx

; 83   :     void        SetLife(int seconds) { life = seconds; }

  00000	0f 57 c0	 xorps	 xmm0, xmm0
  00003	f2 0f 11 81 a8
	01 00 00	 movsd	 QWORD PTR [ecx+424], xmm0
  0000b	c2 04 00	 ret	 4
?SetLife@Drone@@QAEXH@Z ENDP				; Drone::SetLife
_TEXT	ENDS
; Function compile flags: /Ogtp
; File d:\programming\starshatter\trunk\stars45\explosion.h
;	COMDAT ?TYPENAME@Explosion@@SAPBDXZ
_TEXT	SEGMENT
?TYPENAME@Explosion@@SAPBDXZ PROC			; Explosion::TYPENAME, COMDAT

; 59   :     static const char* TYPENAME() { return "Explosion"; }

  00000	b8 00 00 00 00	 mov	 eax, OFFSET ??_C@_09HGNANIIM@Explosion?$AA@
  00005	c3		 ret	 0
?TYPENAME@Explosion@@SAPBDXZ ENDP			; Explosion::TYPENAME
_TEXT	ENDS
; Function compile flags: /Ogtp
; File d:\programming\starshatter\trunk\stars45\mission.h
;	COMDAT ?Stardate@Mission@@QBENXZ
_TEXT	SEGMENT
?Stardate@Mission@@QBENXZ PROC				; Mission::Stardate, COMDAT
; _this$ = ecx

; 132  :     double               Stardate()      const { return stardate;     }

  00000	f2 0f 10 81 b0
	00 00 00	 movsd	 xmm0, QWORD PTR [ecx+176]
  00008	c3		 ret	 0
?Stardate@Mission@@QBENXZ ENDP				; Mission::Stardate
_TEXT	ENDS
; Function compile flags: /Ogtp
; File d:\programming\starshatter\trunk\stars45\mission.h
;	COMDAT ?IsRogue@MissionElement@@QBE_NXZ
_TEXT	SEGMENT
?IsRogue@MissionElement@@QBE_NXZ PROC			; MissionElement::IsRogue, COMDAT
; _this$ = ecx

; 263  :     bool              IsRogue()      const { return rogue;         }

  00000	8a 41 66	 mov	 al, BYTE PTR [ecx+102]
  00003	c3		 ret	 0
?IsRogue@MissionElement@@QBE_NXZ ENDP			; MissionElement::IsRogue
_TEXT	ENDS
; Function compile flags: /Ogtp
; File d:\programming\starshatter\trunk\stars45\mission.h
;	COMDAT ?IsInvulnerable@MissionElement@@QBE_NXZ
_TEXT	SEGMENT
?IsInvulnerable@MissionElement@@QBE_NXZ PROC		; MissionElement::IsInvulnerable, COMDAT
; _this$ = ecx

; 264  :     bool              IsInvulnerable() const { return invulnerable; }

  00000	8a 41 67	 mov	 al, BYTE PTR [ecx+103]
  00003	c3		 ret	 0
?IsInvulnerable@MissionElement@@QBE_NXZ ENDP		; MissionElement::IsInvulnerable
_TEXT	ENDS
; Function compile flags: /Ogtp
; File d:\programming\starshatter\trunk\stars45\mission.h
;	COMDAT ?SetPath@MissionElement@@QAEXPBD@Z
_TEXT	SEGMENT
_p$ = 8							; size = 4
?SetPath@MissionElement@@QAEXPBD@Z PROC			; MissionElement::SetPath, COMDAT
; _this$ = ecx

; 288  :     void              SetPath(const char* p)        { path = p;          }

  00000	55		 push	 ebp
  00001	8b ec		 mov	 ebp, esp
  00003	83 c1 24	 add	 ecx, 36			; 00000024H
  00006	5d		 pop	 ebp
  00007	e9 00 00 00 00	 jmp	 ??4Text@@QAEAAV0@PBD@Z	; Text::operator=
?SetPath@MissionElement@@QAEXPBD@Z ENDP			; MissionElement::SetPath
_TEXT	ENDS
; Function compile flags: /Ogtp
; File d:\programming\starshatter\trunk\stars45\mission.h
;	COMDAT ?SetRogue@MissionElement@@QAEX_N@Z
_TEXT	SEGMENT
_r$ = 8							; size = 1
?SetRogue@MissionElement@@QAEX_N@Z PROC			; MissionElement::SetRogue, COMDAT
; _this$ = ecx

; 300  :     void              SetRogue(bool r)              { rogue = r;         }

  00000	55		 push	 ebp
  00001	8b ec		 mov	 ebp, esp
  00003	8a 45 08	 mov	 al, BYTE PTR _r$[ebp]
  00006	88 41 66	 mov	 BYTE PTR [ecx+102], al
  00009	5d		 pop	 ebp
  0000a	c2 04 00	 ret	 4
?SetRogue@MissionElement@@QAEX_N@Z ENDP			; MissionElement::SetRogue
_TEXT	ENDS
; Function compile flags: /Ogtp
; File d:\programming\starshatter\trunk\stars45\mission.h
;	COMDAT ?SetZoneLock@MissionElement@@QAEXH@Z
_TEXT	SEGMENT
_z$ = 8							; size = 4
?SetZoneLock@MissionElement@@QAEXH@Z PROC		; MissionElement::SetZoneLock, COMDAT
; _this$ = ecx

; 310  :     void              SetZoneLock(int z)            { zone_lock = z;     }

  00000	55		 push	 ebp
  00001	8b ec		 mov	 ebp, esp
  00003	8b 45 08	 mov	 eax, DWORD PTR _z$[ebp]
  00006	89 41 58	 mov	 DWORD PTR [ecx+88], eax
  00009	5d		 pop	 ebp
  0000a	c2 04 00	 ret	 4
?SetZoneLock@MissionElement@@QAEXH@Z ENDP		; MissionElement::SetZoneLock
_TEXT	ENDS
; Function compile flags: /Ogtp
; File d:\programming\starshatter\trunk\stars45\mission.h
; File d:\programming\starshatter\trunk\foundationex\memdebug.h
; File d:\programming\starshatter\trunk\stars45\mission.h
;	COMDAT ?AddInstruction@MissionElement@@QAEXPBD@Z
_TEXT	SEGMENT
$T2 = -16						; size = 4
__$EHRec$ = -12						; size = 12
_i$ = 8							; size = 4
?AddInstruction@MissionElement@@QAEXPBD@Z PROC		; MissionElement::AddInstruction, COMDAT
; _this$ = ecx

; 318  :     void              AddInstruction(const char* i)  { instructions.append(new(__FILE__,__LINE__) Text(i)); }

  00000	55		 push	 ebp
  00001	8b ec		 mov	 ebp, esp
  00003	6a ff		 push	 -1
  00005	68 00 00 00 00	 push	 __ehhandler$?AddInstruction@MissionElement@@QAEXPBD@Z
  0000a	64 a1 00 00 00
	00		 mov	 eax, DWORD PTR fs:0
  00010	50		 push	 eax
  00011	51		 push	 ecx
  00012	56		 push	 esi
  00013	a1 00 00 00 00	 mov	 eax, DWORD PTR ___security_cookie
  00018	33 c5		 xor	 eax, ebp
  0001a	50		 push	 eax
  0001b	8d 45 f4	 lea	 eax, DWORD PTR __$EHRec$[ebp]
  0001e	64 a3 00 00 00
	00		 mov	 DWORD PTR fs:0, eax
  00024	8b f1		 mov	 esi, ecx
; File d:\programming\starshatter\trunk\foundationex\memdebug.h

; 92   : inline void* __cdecl operator new(unsigned int s, const char*, int) { return ::operator new(s);    }

  00026	6a 08		 push	 8
  00028	e8 00 00 00 00	 call	 ??2@YAPAXI@Z		; operator new
  0002d	83 c4 04	 add	 esp, 4
; File d:\programming\starshatter\trunk\stars45\mission.h

; 318  :     void              AddInstruction(const char* i)  { instructions.append(new(__FILE__,__LINE__) Text(i)); }

  00030	89 45 f0	 mov	 DWORD PTR $T2[ebp], eax
  00033	c7 45 fc 00 00
	00 00		 mov	 DWORD PTR __$EHRec$[ebp+8], 0
  0003a	85 c0		 test	 eax, eax
  0003c	74 0c		 je	 SHORT $LN3@AddInstruc
  0003e	ff 75 08	 push	 DWORD PTR _i$[ebp]
  00041	8b c8		 mov	 ecx, eax
  00043	e8 00 00 00 00	 call	 ??0Text@@QAE@PBD@Z	; Text::Text
  00048	eb 02		 jmp	 SHORT $LN4@AddInstruc
$LN3@AddInstruc:
  0004a	33 c0		 xor	 eax, eax
$LN4@AddInstruc:
  0004c	50		 push	 eax
  0004d	8d 8e dc 00 00
	00		 lea	 ecx, DWORD PTR [esi+220]
  00053	c7 45 fc ff ff
	ff ff		 mov	 DWORD PTR __$EHRec$[ebp+8], -1
  0005a	e8 00 00 00 00	 call	 ?append@?$List@VText@@@@QAEXPBVText@@@Z ; List<Text>::append
  0005f	8b 4d f4	 mov	 ecx, DWORD PTR __$EHRec$[ebp]
  00062	64 89 0d 00 00
	00 00		 mov	 DWORD PTR fs:0, ecx
  00069	59		 pop	 ecx
  0006a	5e		 pop	 esi
  0006b	8b e5		 mov	 esp, ebp
  0006d	5d		 pop	 ebp
  0006e	c2 04 00	 ret	 4
_TEXT	ENDS
;	COMDAT text$x
text$x	SEGMENT
__unwindfunclet$?AddInstruction@MissionElement@@QAEXPBD@Z$0:
  00000	68 3e 01 00 00	 push	 318			; 0000013eH
  00005	68 00 00 00 00	 push	 OFFSET ??_C@_0DD@OGGMGBIG@d?3?2programming?2starshatter?2trunk@
  0000a	8b 45 f0	 mov	 eax, DWORD PTR $T2[ebp]
  0000d	50		 push	 eax
  0000e	e8 00 00 00 00	 call	 ??3@YAXPAXPBDH@Z	; operator delete
  00013	83 c4 0c	 add	 esp, 12			; 0000000cH
  00016	c3		 ret	 0
__ehhandler$?AddInstruction@MissionElement@@QAEXPBD@Z:
  00017	8b 54 24 08	 mov	 edx, DWORD PTR [esp+8]
  0001b	8d 42 0c	 lea	 eax, DWORD PTR [edx+12]
  0001e	8b 4a f4	 mov	 ecx, DWORD PTR [edx-12]
  00021	33 c8		 xor	 ecx, eax
  00023	e8 00 00 00 00	 call	 @__security_check_cookie@4
  00028	b8 00 00 00 00	 mov	 eax, OFFSET __ehfuncinfo$?AddInstruction@MissionElement@@QAEXPBD@Z
  0002d	e9 00 00 00 00	 jmp	 ___CxxFrameHandler3
text$x	ENDS
?AddInstruction@MissionElement@@QAEXPBD@Z ENDP		; MissionElement::AddInstruction
; Function compile flags: /Ogtp
; File d:\programming\starshatter\trunk\stars45\mission.h
;	COMDAT ?GetSkin@MissionShip@@QBEPBVSkin@@XZ
_TEXT	SEGMENT
?GetSkin@MissionShip@@QBEPBVSkin@@XZ PROC		; MissionShip::GetSkin, COMDAT
; _this$ = ecx

; 408  :     const Skin*       GetSkin()               const { return skin;       }

  00000	8b 41 18	 mov	 eax, DWORD PTR [ecx+24]
  00003	c3		 ret	 0
?GetSkin@MissionShip@@QBEPBVSkin@@XZ ENDP		; MissionShip::GetSkin
_TEXT	ENDS
; Function compile flags: /Ogtp
; File d:\programming\starshatter\trunk\stars45\mission.h
;	COMDAT ?SetDecoys@MissionShip@@QAEXH@Z
_TEXT	SEGMENT
_d$ = 8							; size = 4
